	.file	"off.c"
	.text
.Ltext0:
	.file 0 "E://Works//ElectronicAsso//2022//Oct//15th" "E:/Works/ElectronicAsso/2022/Oct/15th/off.c"
	.section	.text$_Z6printfPKcz,"x"
	.linkonce discard
	.globl	_Z6printfPKcz
	.def	_Z6printfPKcz;	.scl	2;	.type	32;	.endef
	.seh_proc	_Z6printfPKcz
_Z6printfPKcz:
.LFB8:
	.file 1 "D:/Env/msys64/mingw64/include/stdio.h"
	.loc 1 369 1
	pushq	%rbp
	.seh_pushreg	%rbp
.LCFI0:
	pushq	%rbx
	.seh_pushreg	%rbx
.LCFI1:
	subq	$56, %rsp
	.seh_stackalloc	56
.LCFI2:
	leaq	48(%rsp), %rbp
	.seh_setframe	%rbp, 48
.LCFI3:
	.seh_endprologue
	movq	%rcx, 32(%rbp)
	movq	%rdx, 40(%rbp)
	movq	%r8, 48(%rbp)
	movq	%r9, 56(%rbp)
	.loc 1 371 53
	leaq	40(%rbp), %rax
	movq	%rax, -16(%rbp)
	.loc 1 372 30
	movq	-16(%rbp), %rbx
	movl	$1, %ecx
	movq	__imp___acrt_iob_func(%rip), %rax
	call	*%rax
.LVL0:
	movq	%rax, %rcx
	movq	32(%rbp), %rax
	movq	%rbx, %r8
	movq	%rax, %rdx
	call	__mingw_vfprintf
	movl	%eax, -4(%rbp)
	.loc 1 374 10
	movl	-4(%rbp), %eax
	.loc 1 375 1
	addq	$56, %rsp
	popq	%rbx
.LCFI4:
	popq	%rbp
.LCFI5:
	ret
.LFE8:
	.seh_endproc
	.text
	.globl	_Z1fi
	.def	_Z1fi;	.scl	2;	.type	32;	.endef
	.seh_proc	_Z1fi
_Z1fi:
.LFB94:
	.file 2 "E:/Works/ElectronicAsso/2022/Oct/15th/off.c"
	.loc 2 15 1
	pushq	%rbp
	.seh_pushreg	%rbp
.LCFI6:
	movq	%rsp, %rbp
	.seh_setframe	%rbp, 0
.LCFI7:
	subq	$48, %rsp
	.seh_stackalloc	48
	.seh_endprologue
	movl	%ecx, 16(%rbp)
	.loc 2 16 31
	movl	16(%rbp), %eax
	cltq
	movq	%rax, %rcx
	call	malloc
	movq	%rax, -8(%rbp)
	.loc 2 17 12
	movq	-8(%rbp), %rax
	.loc 2 18 1
	addq	$48, %rsp
	popq	%rbp
.LCFI8:
	ret
.LFE94:
	.seh_endproc
	.def	__main;	.scl	2;	.type	32;	.endef
	.section .rdata,"dr"
.LC0:
	.ascii "The processed string is: %s\12\0"
	.align 8
.LC1:
	.ascii "The number of words in the string is: %d\12\0"
.LC2:
	.ascii "The longest word is: \0"
.LC3:
	.ascii "%c\0"
.LC4:
	.ascii "\12\0"
	.text
	.globl	main
	.def	main;	.scl	2;	.type	32;	.endef
	.seh_proc	main
main:
.LFB95:
	.loc 2 21 1
	pushq	%rbp
	.seh_pushreg	%rbp
.LCFI9:
	pushq	%rbx
	.seh_pushreg	%rbx
.LCFI10:
	subq	$120, %rsp
	.seh_stackalloc	120
.LCFI11:
	leaq	112(%rsp), %rbp
	.seh_setframe	%rbp, 112
.LCFI12:
	.seh_endprologue
	movl	%ecx, 32(%rbp)
	movq	%rdx, 40(%rbp)
	.loc 2 21 1
	call	__main
	.loc 2 27 10
	movabsq	$8022916924116329800, %rax
	movq	%rax, -69(%rbp)
	movabsq	$9399091170596640, %rax
	movq	%rax, -64(%rbp)
.LBB2:
	.loc 2 32 14
	movl	$0, -4(%rbp)
	.loc 2 32 5
	jmp	.L6
.L9:
	.loc 2 34 18
	movl	-4(%rbp), %eax
	cltq
	movzbl	-69(%rbp,%rax), %eax
	.loc 2 34 9
	cmpb	$46, %al
	jne	.L7
	.loc 2 36 14
	addl	$1, -4(%rbp)
	.loc 2 37 18
	movl	-4(%rbp), %eax
	cltq
	movzbl	-69(%rbp,%rax), %eax
	.loc 2 37 20
	subl	$32, %eax
	movl	%eax, %edx
	movl	-4(%rbp), %eax
	cltq
	movb	%dl, -69(%rbp,%rax)
	jmp	.L8
.L7:
	.loc 2 39 23
	movl	-4(%rbp), %eax
	cltq
	movzbl	-69(%rbp,%rax), %eax
	.loc 2 39 14
	cmpb	$64, %al
	jle	.L8
	.loc 2 39 40 discriminator 1
	movl	-4(%rbp), %eax
	cltq
	movzbl	-69(%rbp,%rax), %eax
	.loc 2 39 32 discriminator 1
	cmpb	$90, %al
	jg	.L8
	.loc 2 41 18
	movl	-4(%rbp), %eax
	cltq
	movzbl	-69(%rbp,%rax), %eax
	.loc 2 41 20
	addl	$32, %eax
	movl	%eax, %edx
	movl	-4(%rbp), %eax
	cltq
	movb	%dl, -69(%rbp,%rax)
.L8:
	.loc 2 32 5 discriminator 2
	addl	$1, -4(%rbp)
.L6:
	.loc 2 32 21 discriminator 1
	movl	-4(%rbp), %eax
	movslq	%eax, %rbx
	.loc 2 32 31 discriminator 1
	leaq	-69(%rbp), %rax
	movq	%rax, %rcx
	call	strlen
	.loc 2 32 23 discriminator 1
	cmpq	%rax, %rbx
	jb	.L9
.LBE2:
	.loc 2 44 10
	movzbl	-69(%rbp), %eax
	.loc 2 44 12
	subl	$32, %eax
	movb	%al, -69(%rbp)
.LBB3:
	.loc 2 45 21
	leaq	-69(%rbp), %rax
	movq	%rax, %rcx
	call	strlen
	.loc 2 45 26
	subl	$1, %eax
	.loc 2 45 13
	movl	%eax, -8(%rbp)
	.loc 2 45 5
	jmp	.L10
.L14:
	.loc 2 46 18
	movl	-8(%rbp), %eax
	cltq
	movzbl	-69(%rbp,%rax), %eax
	.loc 2 46 9
	cmpb	$46, %al
	je	.L11
	.loc 2 46 35 discriminator 1
	movl	-8(%rbp), %eax
	cltq
	movzbl	-69(%rbp,%rax), %eax
	.loc 2 46 27 discriminator 1
	cmpb	$33, %al
	je	.L11
	.loc 2 46 52 discriminator 2
	movl	-8(%rbp), %eax
	cltq
	movzbl	-69(%rbp,%rax), %eax
	.loc 2 46 44 discriminator 2
	cmpb	$63, %al
	jne	.L12
.L11:
	.loc 2 47 18
	movl	-8(%rbp), %eax
	addl	$1, %eax
	.loc 2 47 21
	cltq
	movb	$0, -69(%rbp,%rax)
	.loc 2 48 13
	jmp	.L13
.L12:
	.loc 2 45 5 discriminator 2
	subl	$1, -8(%rbp)
.L10:
	.loc 2 45 32 discriminator 1
	cmpl	$0, -8(%rbp)
	jg	.L14
.L13:
.LBE3:
	.loc 2 53 11
	leaq	-69(%rbp), %rax
	movq	%rax, %rdx
	leaq	.LC0(%rip), %rax
	movq	%rax, %rcx
	call	_Z6printfPKcz
	.loc 2 56 9
	movl	$0, -12(%rbp)
.LBB4:
	.loc 2 57 14
	movl	$0, -16(%rbp)
	.loc 2 57 5
	jmp	.L15
.L18:
	.loc 2 59 18
	movl	-16(%rbp), %eax
	cltq
	movzbl	-69(%rbp,%rax), %eax
	.loc 2 59 9
	cmpb	$32, %al
	je	.L16
	.loc 2 59 35 discriminator 1
	movl	-16(%rbp), %eax
	cltq
	movzbl	-69(%rbp,%rax), %eax
	.loc 2 59 27 discriminator 1
	cmpb	$33, %al
	je	.L16
	.loc 2 59 52 discriminator 2
	movl	-16(%rbp), %eax
	cltq
	movzbl	-69(%rbp,%rax), %eax
	.loc 2 59 44 discriminator 2
	cmpb	$63, %al
	je	.L16
	.loc 2 59 69 discriminator 3
	movl	-16(%rbp), %eax
	cltq
	movzbl	-69(%rbp,%rax), %eax
	.loc 2 59 61 discriminator 3
	cmpb	$44, %al
	je	.L16
	.loc 2 59 86 discriminator 4
	movl	-16(%rbp), %eax
	cltq
	movzbl	-69(%rbp,%rax), %eax
	.loc 2 59 78 discriminator 4
	cmpb	$46, %al
	jne	.L17
.L16:
	.loc 2 61 18
	addl	$1, -12(%rbp)
.L17:
	.loc 2 57 5 discriminator 2
	addl	$1, -16(%rbp)
.L15:
	.loc 2 57 21 discriminator 1
	movl	-16(%rbp), %eax
	movslq	%eax, %rbx
	.loc 2 57 31 discriminator 1
	leaq	-69(%rbp), %rax
	movq	%rax, %rcx
	call	strlen
	.loc 2 57 23 discriminator 1
	cmpq	%rax, %rbx
	jb	.L18
.LBE4:
	.loc 2 64 11
	movl	-12(%rbp), %eax
	movl	%eax, %edx
	leaq	.LC1(%rip), %rax
	movq	%rax, %rcx
	call	_Z6printfPKcz
	.loc 2 67 9
	movl	$0, -20(%rbp)
	.loc 2 67 28
	movl	$0, -24(%rbp)
	.loc 2 68 9
	movl	$0, -28(%rbp)
	.loc 2 68 24
	movl	$0, -32(%rbp)
.LBB5:
	.loc 2 69 14
	movl	$0, -36(%rbp)
	.loc 2 69 5
	jmp	.L19
.L26:
.LBB6:
	.loc 2 72 18
	movl	-36(%rbp), %eax
	cltq
	movzbl	-69(%rbp,%rax), %eax
	.loc 2 72 9
	cmpb	$45, %al
	je	.L30
.LBB7:
	.loc 2 76 18
	movl	-36(%rbp), %eax
	cltq
	movzbl	-69(%rbp,%rax), %eax
	.loc 2 76 9
	cmpb	$32, %al
	je	.L22
	.loc 2 76 35 discriminator 1
	movl	-36(%rbp), %eax
	cltq
	movzbl	-69(%rbp,%rax), %eax
	.loc 2 76 27 discriminator 1
	cmpb	$33, %al
	je	.L22
	.loc 2 76 52 discriminator 2
	movl	-36(%rbp), %eax
	cltq
	movzbl	-69(%rbp,%rax), %eax
	.loc 2 76 44 discriminator 2
	cmpb	$63, %al
	je	.L22
	.loc 2 76 67 discriminator 3
	movl	-36(%rbp), %eax
	cltq
	movzbl	-69(%rbp,%rax), %eax
	.loc 2 76 59 discriminator 3
	cmpb	$44, %al
	je	.L22
	.loc 2 76 84 discriminator 4
	movl	-36(%rbp), %eax
	cltq
	movzbl	-69(%rbp,%rax), %eax
	.loc 2 76 76 discriminator 4
	cmpb	$46, %al
	jne	.L23
.L22:
.LBB8:
.LBB9:
	.loc 2 78 26
	movl	-32(%rbp), %eax
	subl	-28(%rbp), %eax
	movl	%eax, %edx
	.loc 2 78 53
	movl	-24(%rbp), %eax
	subl	-20(%rbp), %eax
	.loc 2 78 13
	cmpl	%eax, %edx
	jle	.L24
	.loc 2 80 31
	movl	-28(%rbp), %eax
	movl	%eax, -20(%rbp)
	.loc 2 81 30
	movl	-32(%rbp), %eax
	movl	%eax, -24(%rbp)
	jmp	.L25
.L24:
.LBB10:
.LBB11:
	.loc 2 83 31
	movl	-32(%rbp), %eax
	subl	-28(%rbp), %eax
	movl	%eax, %edx
	.loc 2 83 59
	movl	-24(%rbp), %eax
	subl	-20(%rbp), %eax
	.loc 2 83 18
	cmpl	%eax, %edx
	jne	.L25
.LBB12:
	.loc 2 85 41
	movl	-32(%rbp), %eax
	subl	-28(%rbp), %eax
	.loc 2 85 31
	addl	$1, %eax
	movl	%eax, %ecx
	call	_Z1fi
	movq	%rax, -48(%rbp)
	.loc 2 86 45
	movl	-24(%rbp), %eax
	subl	-20(%rbp), %eax
	.loc 2 86 31
	addl	$1, %eax
	movl	%eax, %ecx
	call	_Z1fi
	movq	%rax, -56(%rbp)
	.loc 2 88 27
	movq	-56(%rbp), %rdx
	movq	-48(%rbp), %rax
	movq	%rax, %rcx
	call	strcmp
	.loc 2 88 17
	testl	%eax, %eax
	jle	.L25
	.loc 2 90 35
	movl	-28(%rbp), %eax
	movl	%eax, -20(%rbp)
	.loc 2 91 34
	movl	-32(%rbp), %eax
	movl	%eax, -24(%rbp)
.L25:
.LBE12:
.LBE11:
.LBE10:
.LBE9:
	.loc 2 94 23
	movl	-36(%rbp), %eax
	addl	$1, %eax
	movl	%eax, -28(%rbp)
	.loc 2 95 22
	movl	-36(%rbp), %eax
	addl	$1, %eax
	movl	%eax, -32(%rbp)
.LBE8:
	.loc 2 96 9
	jmp	.L21
.L23:
	.loc 2 99 21
	addl	$1, -32(%rbp)
	jmp	.L21
.L30:
.LBE7:
	.loc 2 74 13
	nop
.L21:
.LBE6:
	.loc 2 69 5 discriminator 2
	addl	$1, -36(%rbp)
.L19:
	.loc 2 69 21 discriminator 1
	movl	-36(%rbp), %eax
	movslq	%eax, %rbx
	.loc 2 69 31 discriminator 1
	leaq	-69(%rbp), %rax
	movq	%rax, %rcx
	call	strlen
	.loc 2 69 23 discriminator 1
	cmpq	%rax, %rbx
	jb	.L26
.LBE5:
	.loc 2 102 11
	leaq	.LC2(%rip), %rax
	movq	%rax, %rcx
	call	_Z6printfPKcz
.LBB13:
	.loc 2 103 14
	movl	-20(%rbp), %eax
	movl	%eax, -40(%rbp)
	.loc 2 103 5
	jmp	.L27
.L28:
	.loc 2 105 27
	movl	-40(%rbp), %eax
	cltq
	movzbl	-69(%rbp,%rax), %eax
	.loc 2 105 15
	movsbl	%al, %eax
	movl	%eax, %edx
	leaq	.LC3(%rip), %rax
	movq	%rax, %rcx
	call	_Z6printfPKcz
	.loc 2 103 5
	addl	$1, -40(%rbp)
.L27:
	.loc 2 103 35 discriminator 1
	movl	-40(%rbp), %eax
	cmpl	-24(%rbp), %eax
	jle	.L28
.LBE13:
	.loc 2 107 11
	leaq	.LC4(%rip), %rax
	movq	%rax, %rcx
	call	_Z6printfPKcz
	.loc 2 109 12
	movl	$0, %eax
	.loc 2 110 1
	addq	$120, %rsp
	popq	%rbx
.LCFI13:
	popq	%rbp
.LCFI14:
	ret
.LFE95:
	.seh_endproc
	.section	.debug_frame,"dr"
.Lframe0:
	.long	.LECIE0-.LSCIE0
.LSCIE0:
	.long	0xffffffff
	.byte	0x3
	.ascii "\0"
	.uleb128 0x1
	.sleb128 -8
	.uleb128 0x10
	.byte	0xc
	.uleb128 0x7
	.uleb128 0x8
	.byte	0x90
	.uleb128 0x1
	.align 8
.LECIE0:
.LSFDE0:
	.long	.LEFDE0-.LASFDE0
.LASFDE0:
	.secrel32	.Lframe0
	.quad	.LFB8
	.quad	.LFE8-.LFB8
	.byte	0x4
	.long	.LCFI0-.LFB8
	.byte	0xe
	.uleb128 0x10
	.byte	0x86
	.uleb128 0x2
	.byte	0x4
	.long	.LCFI1-.LCFI0
	.byte	0xe
	.uleb128 0x18
	.byte	0x83
	.uleb128 0x3
	.byte	0x4
	.long	.LCFI2-.LCFI1
	.byte	0xe
	.uleb128 0x50
	.byte	0x4
	.long	.LCFI3-.LCFI2
	.byte	0xc
	.uleb128 0x6
	.uleb128 0x20
	.byte	0x4
	.long	.LCFI4-.LCFI3
	.byte	0xc3
	.byte	0x4
	.long	.LCFI5-.LCFI4
	.byte	0xc6
	.byte	0x12
	.uleb128 0x7
	.sleb128 5
	.align 8
.LEFDE0:
.LSFDE2:
	.long	.LEFDE2-.LASFDE2
.LASFDE2:
	.secrel32	.Lframe0
	.quad	.LFB94
	.quad	.LFE94-.LFB94
	.byte	0x4
	.long	.LCFI6-.LFB94
	.byte	0xe
	.uleb128 0x10
	.byte	0x86
	.uleb128 0x2
	.byte	0x4
	.long	.LCFI7-.LCFI6
	.byte	0xd
	.uleb128 0x6
	.byte	0x4
	.long	.LCFI8-.LCFI7
	.byte	0xc6
	.byte	0xc
	.uleb128 0x7
	.uleb128 0x8
	.align 8
.LEFDE2:
.LSFDE4:
	.long	.LEFDE4-.LASFDE4
.LASFDE4:
	.secrel32	.Lframe0
	.quad	.LFB95
	.quad	.LFE95-.LFB95
	.byte	0x4
	.long	.LCFI9-.LFB95
	.byte	0xe
	.uleb128 0x10
	.byte	0x86
	.uleb128 0x2
	.byte	0x4
	.long	.LCFI10-.LCFI9
	.byte	0xe
	.uleb128 0x18
	.byte	0x83
	.uleb128 0x3
	.byte	0x4
	.long	.LCFI11-.LCFI10
	.byte	0xe
	.uleb128 0x90
	.byte	0x4
	.long	.LCFI12-.LCFI11
	.byte	0xc
	.uleb128 0x6
	.uleb128 0x20
	.byte	0x4
	.long	.LCFI13-.LCFI12
	.byte	0xc3
	.byte	0x4
	.long	.LCFI14-.LCFI13
	.byte	0xc6
	.byte	0x12
	.uleb128 0x7
	.sleb128 13
	.align 8
.LEFDE4:
	.text
.Letext0:
	.file 3 "D:/Env/msys64/mingw64/include/vadefs.h"
	.file 4 "D:/Env/msys64/mingw64/include/corecrt.h"
	.file 5 "D:/Env/msys64/mingw64/include/stdlib.h"
	.file 6 "D:/Env/msys64/mingw64/include/c++/12.1.0/cstdlib"
	.file 7 "D:/Env/msys64/mingw64/include/c++/12.1.0/bits/std_abs.h"
	.file 8 "D:/Env/msys64/mingw64/include/c++/12.1.0/x86_64-w64-mingw32/bits/c++config.h"
	.file 9 "D:/Env/msys64/mingw64/include/c++/12.1.0/stdlib.h"
	.file 10 "D:/Env/msys64/mingw64/include/string.h"