	.file	"6.c"
	.text
.Ltext0:
	.file 0 "E://Works//Clang//2022//Opt//work6" "E:/Works/Clang/2022/Opt/work6/6.c"
	.section	.text$_Z5scanfPKcz,"x"
	.linkonce discard
	.globl	_Z5scanfPKcz
	.def	_Z5scanfPKcz;	.scl	2;	.type	32;	.endef
	.seh_proc	_Z5scanfPKcz
_Z5scanfPKcz:
.LFB2:
	.file 1 "D:/Env/msys64/mingw64/include/stdio.h"
	.loc 1 302 1
	pushq	%rbp
	.seh_pushreg	%rbp
.LCFI0:
	pushq	%rbx
	.seh_pushreg	%rbx
.LCFI1:
	subq	$56, %rsp
	.seh_stackalloc	56
.LCFI2:
	leaq	48(%rsp), %rbp
	.seh_setframe	%rbp, 48
.LCFI3:
	.seh_endprologue
	movq	%rcx, 32(%rbp)
	movq	%rdx, 40(%rbp)
	movq	%r8, 48(%rbp)
	movq	%r9, 56(%rbp)
	.loc 1 304 53
	leaq	40(%rbp), %rax
	movq	%rax, -16(%rbp)
	.loc 1 305 29
	movq	-16(%rbp), %rbx
	movl	$0, %ecx
	movq	__imp___acrt_iob_func(%rip), %rax
	call	*%rax
.LVL0:
	movq	%rax, %rcx
	movq	32(%rbp), %rax
	movq	%rbx, %r8
	movq	%rax, %rdx
	call	__mingw_vfscanf
	movl	%eax, -4(%rbp)
	.loc 1 307 10
	movl	-4(%rbp), %eax
	.loc 1 308 1
	addq	$56, %rsp
	popq	%rbx
.LCFI4:
	popq	%rbp
.LCFI5:
	ret
.LFE2:
	.seh_endproc
	.section	.text$_Z6printfPKcz,"x"
	.linkonce discard
	.globl	_Z6printfPKcz
	.def	_Z6printfPKcz;	.scl	2;	.type	32;	.endef
	.seh_proc	_Z6printfPKcz
_Z6printfPKcz:
.LFB8:
	.loc 1 369 1
	pushq	%rbp
	.seh_pushreg	%rbp
.LCFI6:
	pushq	%rbx
	.seh_pushreg	%rbx
.LCFI7:
	subq	$56, %rsp
	.seh_stackalloc	56
.LCFI8:
	leaq	48(%rsp), %rbp
	.seh_setframe	%rbp, 48
.LCFI9:
	.seh_endprologue
	movq	%rcx, 32(%rbp)
	movq	%rdx, 40(%rbp)
	movq	%r8, 48(%rbp)
	movq	%r9, 56(%rbp)
	.loc 1 371 53
	leaq	40(%rbp), %rax
	movq	%rax, -16(%rbp)
	.loc 1 372 30
	movq	-16(%rbp), %rbx
	movl	$1, %ecx
	movq	__imp___acrt_iob_func(%rip), %rax
	call	*%rax
.LVL1:
	movq	%rax, %rcx
	movq	32(%rbp), %rax
	movq	%rbx, %r8
	movq	%rax, %rdx
	call	__mingw_vfprintf
	movl	%eax, -4(%rbp)
	.loc 1 374 10
	movl	-4(%rbp), %eax
	.loc 1 375 1
	addq	$56, %rsp
	popq	%rbx
.LCFI10:
	popq	%rbp
.LCFI11:
	ret
.LFE8:
	.seh_endproc
	.text
	.globl	_Z13checkTriangleiii
	.def	_Z13checkTriangleiii;	.scl	2;	.type	32;	.endef
	.seh_proc	_Z13checkTriangleiii
_Z13checkTriangleiii:
.LFB1042:
	.file 2 "E:/Works/Clang/2022/Opt/work6/6.c"
	.loc 2 18 43
	pushq	%rbp
	.seh_pushreg	%rbp
.LCFI12:
	movq	%rsp, %rbp
	.seh_setframe	%rbp, 0
.LCFI13:
	subq	$16, %rsp
	.seh_stackalloc	16
	.seh_endprologue
	movl	%ecx, 16(%rbp)
	movl	%edx, 24(%rbp)
	movl	%r8d, 32(%rbp)
	.loc 2 20 9
	movl	16(%rbp), %edx
	movl	24(%rbp), %eax
	addl	%edx, %eax
	.loc 2 20 5
	cmpl	%eax, 32(%rbp)
	jge	.L6
	.loc 2 20 18 discriminator 1
	movl	16(%rbp), %edx
	movl	32(%rbp), %eax
	addl	%edx, %eax
	.loc 2 20 14 discriminator 1
	cmpl	%eax, 24(%rbp)
	jge	.L6
	.loc 2 20 27 discriminator 2
	movl	24(%rbp), %edx
	movl	32(%rbp), %eax
	addl	%edx, %eax
	.loc 2 20 23 discriminator 2
	cmpl	%eax, 16(%rbp)
	jge	.L6
	.loc 2 21 16
	movl	$1, -4(%rbp)
	jmp	.L7
.L6:
	.loc 2 23 16
	movl	$0, -4(%rbp)
.L7:
	.loc 2 25 12
	movl	-4(%rbp), %eax
	.loc 2 26 1
	addq	$16, %rsp
	popq	%rbp
.LCFI14:
	ret
.LFE1042:
	.seh_endproc
	.section .rdata,"dr"
.LC0:
	.ascii "pls input 3 integers: \0"
.LC1:
	.ascii "%d %d %d\0"
.LC2:
	.ascii "Yes, it can form a triangle\12\0"
	.align 8
.LC3:
	.ascii "No, it can not form a triangle\12\0"
	.text
	.globl	_Z4testv
	.def	_Z4testv;	.scl	2;	.type	32;	.endef
	.seh_proc	_Z4testv
_Z4testv:
.LFB1043:
	.loc 2 29 12
	pushq	%rbp
	.seh_pushreg	%rbp
.LCFI15:
	movq	%rsp, %rbp
	.seh_setframe	%rbp, 0
.LCFI16:
	subq	$48, %rsp
	.seh_stackalloc	48
	.seh_endprologue
	.loc 2 31 11
	leaq	.LC0(%rip), %rax
	movq	%rax, %rcx
	call	_Z6printfPKcz
	.loc 2 32 10
	leaq	-16(%rbp), %rcx
	leaq	-12(%rbp), %rdx
	leaq	-8(%rbp), %rax
	movq	%rcx, %r9
	movq	%rdx, %r8
	movq	%rax, %rdx
	leaq	.LC1(%rip), %rax
	movq	%rax, %rcx
	call	_Z5scanfPKcz
	.loc 2 33 35
	movl	-16(%rbp), %ecx
	movl	-12(%rbp), %edx
	movl	-8(%rbp), %eax
	movl	%ecx, %r8d
	movl	%eax, %ecx
	call	_Z13checkTriangleiii
	movl	%eax, -4(%rbp)
	.loc 2 34 5
	cmpl	$0, -4(%rbp)
	je	.L10
	.loc 2 35 15
	leaq	.LC2(%rip), %rax
	movq	%rax, %rcx
	call	_Z6printfPKcz
	.loc 2 39 1
	jmp	.L12
.L10:
	.loc 2 37 15
	leaq	.LC3(%rip), %rax
	movq	%rax, %rcx
	call	_Z6printfPKcz
.L12:
	.loc 2 39 1
	nop
	addq	$48, %rsp
	popq	%rbp
.LCFI17:
	ret
.LFE1043:
	.seh_endproc
	.def	__main;	.scl	2;	.type	32;	.endef
	.globl	main
	.def	main;	.scl	2;	.type	32;	.endef
	.seh_proc	main
main:
.LFB1044:
	.loc 2 42 1
	pushq	%rbp
	.seh_pushreg	%rbp
.LCFI18:
	movq	%rsp, %rbp
	.seh_setframe	%rbp, 0
.LCFI19:
	subq	$32, %rsp
	.seh_stackalloc	32
	.seh_endprologue
	movl	%ecx, 16(%rbp)
	movq	%rdx, 24(%rbp)
	.loc 2 42 1
	call	__main
	.loc 2 44 9
	call	_Z4testv
	.loc 2 46 12
	movl	$0, %eax
	.loc 2 47 1
	addq	$32, %rsp
	popq	%rbp
.LCFI20:
	ret
.LFE1044:
	.seh_endproc
	.section	.debug_frame,"dr"
.Lframe0:
	.long	.LECIE0-.LSCIE0
.LSCIE0:
	.long	0xffffffff
	.byte	0x3
	.ascii "\0"
	.uleb128 0x1
	.sleb128 -8
	.uleb128 0x10
	.byte	0xc
	.uleb128 0x7
	.uleb128 0x8
	.byte	0x90
	.uleb128 0x1
	.align 8
.LECIE0:
.LSFDE0:
	.long	.LEFDE0-.LASFDE0
.LASFDE0:
	.secrel32	.Lframe0
	.quad	.LFB2
	.quad	.LFE2-.LFB2
	.byte	0x4
	.long	.LCFI0-.LFB2
	.byte	0xe
	.uleb128 0x10
	.byte	0x86
	.uleb128 0x2
	.byte	0x4
	.long	.LCFI1-.LCFI0
	.byte	0xe
	.uleb128 0x18
	.byte	0x83
	.uleb128 0x3
	.byte	0x4
	.long	.LCFI2-.LCFI1
	.byte	0xe
	.uleb128 0x50
	.byte	0x4
	.long	.LCFI3-.LCFI2
	.byte	0xc
	.uleb128 0x6
	.uleb128 0x20
	.byte	0x4
	.long	.LCFI4-.LCFI3
	.byte	0xc3
	.byte	0x4
	.long	.LCFI5-.LCFI4
	.byte	0xc6
	.byte	0x12
	.uleb128 0x7
	.sleb128 5
	.align 8
.LEFDE0:
.LSFDE2:
	.long	.LEFDE2-.LASFDE2
.LASFDE2:
	.secrel32	.Lframe0
	.quad	.LFB8
	.quad	.LFE8-.LFB8
	.byte	0x4
	.long	.LCFI6-.LFB8
	.byte	0xe
	.uleb128 0x10
	.byte	0x86
	.uleb128 0x2
	.byte	0x4
	.long	.LCFI7-.LCFI6
	.byte	0xe
	.uleb128 0x18
	.byte	0x83
	.uleb128 0x3
	.byte	0x4
	.long	.LCFI8-.LCFI7
	.byte	0xe
	.uleb128 0x50
	.byte	0x4
	.long	.LCFI9-.LCFI8
	.byte	0xc
	.uleb128 0x6
	.uleb128 0x20
	.byte	0x4
	.long	.LCFI10-.LCFI9
	.byte	0xc3
	.byte	0x4
	.long	.LCFI11-.LCFI10
	.byte	0xc6
	.byte	0x12
	.uleb128 0x7
	.sleb128 5
	.align 8
.LEFDE2:
.LSFDE4:
	.long	.LEFDE4-.LASFDE4
.LASFDE4:
	.secrel32	.Lframe0
	.quad	.LFB1042
	.quad	.LFE1042-.LFB1042
	.byte	0x4
	.long	.LCFI12-.LFB1042
	.byte	0xe
	.uleb128 0x10
	.byte	0x86
	.uleb128 0x2
	.byte	0x4
	.long	.LCFI13-.LCFI12
	.byte	0xd
	.uleb128 0x6
	.byte	0x4
	.long	.LCFI14-.LCFI13
	.byte	0xc6
	.byte	0xc
	.uleb128 0x7
	.uleb128 0x8
	.align 8
.LEFDE4:
.LSFDE6:
	.long	.LEFDE6-.LASFDE6
.LASFDE6:
	.secrel32	.Lframe0
	.quad	.LFB1043
	.quad	.LFE1043-.LFB1043
	.byte	0x4
	.long	.LCFI15-.LFB1043
	.byte	0xe
	.uleb128 0x10
	.byte	0x86
	.uleb128 0x2
	.byte	0x4
	.long	.LCFI16-.LCFI15
	.byte	0xd
	.uleb128 0x6
	.byte	0x4
	.long	.LCFI17-.LCFI16
	.byte	0xc6
	.byte	0xc
	.uleb128 0x7
	.uleb128 0x8
	.align 8
.LEFDE6:
.LSFDE8:
	.long	.LEFDE8-.LASFDE8
.LASFDE8:
	.secrel32	.Lframe0
	.quad	.LFB1044
	.quad	.LFE1044-.LFB1044
	.byte	0x4
	.long	.LCFI18-.LFB1044
	.byte	0xe
	.uleb128 0x10
	.byte	0x86
	.uleb128 0x2
	.byte	0x4
	.long	.LCFI19-.LCFI18
	.byte	0xd
	.uleb128 0x6
	.byte	0x4
	.long	.LCFI20-.LCFI19
	.byte	0xc6
	.byte	0xc
	.uleb128 0x7
	.uleb128 0x8
	.align 8
.LEFDE8:
	.text
.Letext0:
	.file 3 "D:/Env/msys64/mingw64/include/vadefs.h"
	.file 4 "D:/Env/msys64/mingw64/include/c++/12.1.0/cmath"
	.file 5 "D:/Env/msys64/mingw64/include/c++/12.1.0/type_traits"
	.file 6 "D:/Env/msys64/mingw64/include/c++/12.1.0/debug/debug.h"
	.file 7 "D:/Env/msys64/mingw64/include/c++/12.1.0/bits/std_abs.h"
	.file 8 "D:/Env/msys64/mingw64/include/c++/12.1.0/bits/stl_iterator.h"
	.file 9 "D:/Env/msys64/mingw64/include/c++/12.1.0/x86_64-w64-mingw32/bits/c++config.h"
	.file 10 "D:/Env/msys64/mingw64/include/c++/12.1.0/bits/predefined_ops.h"
	.file 11 "D:/Env/msys64/mingw64/include/math.h"
	.file 12 "D:/Env/msys64/mingw64/include/c++/12.1.0/math.h"
	.file 13 "E:/Works/Clang/2022/Opt/work6/util.h"