	.file	"cpp.cpp"
	.text
.Ltext0:
	.file 0 "E://Works//Cao" "E:/Works/Cao/cpp.cpp"
	.def	_ZL6printfPKcz;	.scl	3;	.type	32;	.endef
	.seh_proc	_ZL6printfPKcz
_ZL6printfPKcz:
.LFB223:
	.file 1 "D:/Env/msys64/mingw64/include/stdio.h"
	.loc 1 369 1
	pushq	%rbp
	.seh_pushreg	%rbp
.LCFI0:
	pushq	%rbx
	.seh_pushreg	%rbx
.LCFI1:
	subq	$56, %rsp
	.seh_stackalloc	56
.LCFI2:
	leaq	48(%rsp), %rbp
	.seh_setframe	%rbp, 48
.LCFI3:
	.seh_endprologue
	movq	%rcx, 32(%rbp)
	movq	%rdx, 40(%rbp)
	movq	%r8, 48(%rbp)
	movq	%r9, 56(%rbp)
	.loc 1 371 53
	leaq	40(%rbp), %rax
	movq	%rax, -16(%rbp)
	.loc 1 372 30
	movq	-16(%rbp), %rbx
	movl	$1, %ecx
	movq	__imp___acrt_iob_func(%rip), %rax
	call	*%rax
.LVL0:
	movq	%rax, %rcx
	movq	32(%rbp), %rax
	movq	%rbx, %r8
	movq	%rax, %rdx
	call	__mingw_vfprintf
	movl	%eax, -4(%rbp)
	.loc 1 374 10
	movl	-4(%rbp), %eax
	.loc 1 375 1
	addq	$56, %rsp
	popq	%rbx
.LCFI4:
	popq	%rbp
.LCFI5:
	ret
.LFE223:
	.seh_endproc
.lcomm _ZStL8__ioinit,1,1
	.globl	table
	.bss
	.align 8
table:
	.space 8
	.globl	length
	.align 8
length:
	.space 8
	.section .rdata,"dr"
	.align 8
.LC0:
	.ascii "\351\207\215\346\226\260\345\275\225\345\205\245\346\225\260\346\215\256\344\274\232\346\270\205\351\231\244\344\275\240\345\216\237\346\235\245\347\232\204\346\225\260\346\215\256\357\274\214\346\230\257\345\220\246\347\273\247\347\273\255\357\274\210Y/n\357\274\211\357\274\232\12\0"
.LC1:
	.ascii "cls\0"
	.align 8
.LC2:
	.ascii "\350\257\267\350\276\223\345\205\245\350\246\201\345\275\225\345\205\245\347\232\204\345\255\246\347\224\237\346\210\220\347\273\251\346\225\260\351\207\217\357\274\232\0"
	.align 8
.LC3:
	.ascii "\350\257\267\345\274\200\345\247\213\345\275\225\345\205\245\346\225\260\346\215\256\357\274\214\346\257\217\346\254\241\345\275\225\345\205\245\346\225\260\346\215\256\350\257\267\347\224\250\346\215\242\350\241\214\345\210\206\351\232\224\357\274\232\12\0"
.LC4:
	.ascii "\357\274\232\0"
	.align 8
.LC5:
	.ascii "\345\275\225\345\205\245\346\225\260\346\215\256\345\256\214\346\257\225\357\274\214\350\257\267\346\214\211\346\215\242\350\241\214\351\200\200\345\207\272\0"
	.align 8
.LC6:
	.ascii "\345\210\233\345\273\272\346\225\260\346\215\256\345\244\261\350\264\245\357\274\214\350\257\267\346\243\200\346\237\245\347\263\273\347\273\237\345\206\205\345\255\230\357\274\201\12\0"
	.text
	.globl	_Z8initDatav
	.def	_Z8initDatav;	.scl	2;	.type	32;	.endef
	.seh_proc	_Z8initDatav
_Z8initDatav:
.LFB1844:
	.file 2 "E:/Works/Cao/cpp.cpp"
	.loc 2 20 1
	pushq	%rbp
	.seh_pushreg	%rbp
.LCFI6:
	pushq	%rbx
	.seh_pushreg	%rbx
.LCFI7:
	subq	$88, %rsp
	.seh_stackalloc	88
.LCFI8:
	leaq	80(%rsp), %rbp
	.seh_setframe	%rbp, 80
.LCFI9:
	.seh_endprologue
	.loc 2 21 10
	movb	$89, -5(%rbp)
	.loc 2 22 12
	leaq	-48(%rbp), %rax
	movq	%rax, %rcx
	call	_ZNSt7__cxx1112basic_stringIcSt11char_traitsIcESaIcEEC1Ev
	.loc 2 23 15
	movq	table(%rip), %rax
	.loc 2 23 5
	testq	%rax, %rax
	je	.L4
	.loc 2 25 15
	leaq	.LC0(%rip), %rax
	movq	%rax, %rcx
.LEHB0:
	call	_ZL6printfPKcz
	.loc 2 26 22
	call	getchar
	.loc 2 26 13
	movb	%al, -5(%rbp)
	.loc 2 27 20
	movsbl	-5(%rbp), %eax
	movl	%eax, %ecx
	movq	__imp_toupper(%rip), %rax
	call	*%rax
.LVL1:
	.loc 2 27 9
	cmpl	$89, %eax
	je	.L5
	.loc 2 27 33 discriminator 1
	cmpb	$10, -5(%rbp)
	jne	.L6
.L5:
	.loc 2 29 13
	movq	table(%rip), %rax
	testq	%rax, %rax
	je	.L7
	.loc 2 29 22 discriminator 1
	movq	table(%rip), %rax
	movq	%rax, %rcx
	call	_ZdaPv
.L7:
	.loc 2 30 20
	movq	$0, length(%rip)
	.loc 2 31 19
	movq	$0, table(%rip)
	.loc 2 32 19
	leaq	.LC1(%rip), %rax
	movq	%rax, %rcx
	call	system
	jmp	.L4
.L6:
	.loc 2 35 13
	movl	$0, %ebx
	jmp	.L9
.L4:
	.loc 2 37 13
	leaq	.LC2(%rip), %rax
	movq	%rax, %rdx
	movq	.refptr._ZSt4cout(%rip), %rax
	movq	%rax, %rcx
	call	_ZStlsISt11char_traitsIcEERSt13basic_ostreamIcT_ES5_PKc
	.loc 2 38 12
	leaq	length(%rip), %rax
	movq	%rax, %rdx
	movq	.refptr._ZSt3cin(%rip), %rax
	movq	%rax, %rcx
	call	_ZNSirsERy
.LBB5:
	.loc 2 39 28
	movq	length(%rip), %rax
	.loc 2 39 34
	movabsq	$1152921504606846975, %rdx
	cmpq	%rax, %rdx
	jb	.L10
	.loc 2 39 34 is_stmt 0 discriminator 1
	salq	$3, %rax
	movq	%rax, %rcx
	call	_Znay
	jmp	.L21
.L10:
	.loc 2 39 34 discriminator 2
	call	__cxa_throw_bad_array_new_length
.L21:
	.loc 2 39 15 is_stmt 1 discriminator 3
	movq	%rax, table(%rip)
	movq	table(%rip), %rax
	testq	%rax, %rax
	setne	%al
	.loc 2 39 5 discriminator 3
	testb	%al, %al
	je	.L12
.LBB6:
	.loc 2 41 17
	leaq	.LC3(%rip), %rax
	movq	%rax, %rdx
	movq	.refptr._ZSt4cout(%rip), %rax
	movq	%rax, %rcx
	call	_ZStlsISt11char_traitsIcEERSt13basic_ostreamIcT_ES5_PKc
.LBB7:
	.loc 2 42 18
	movl	$0, -4(%rbp)
	.loc 2 42 9
	jmp	.L13
.L14:
	.loc 2 44 30
	movl	-4(%rbp), %eax
	movl	%eax, %edx
	movq	.refptr._ZSt4cout(%rip), %rax
	movq	%rax, %rcx
	call	_ZNSolsEi
	movq	%rax, %rcx
	leaq	.LC4(%rip), %rax
	movq	%rax, %rdx
	call	_ZStlsISt11char_traitsIcEERSt13basic_ostreamIcT_ES5_PKc
	.loc 2 45 31
	movq	table(%rip), %rax
	.loc 2 45 26
	movl	-4(%rbp), %edx
	movslq	%edx, %rdx
	.loc 2 45 31
	salq	$3, %rdx
	addq	%rdx, %rax
	movq	%rax, %rdx
	movq	.refptr._ZSt3cin(%rip), %rax
	movq	%rax, %rcx
	call	_ZNSirsERd
	.loc 2 42 9 discriminator 2
	addl	$1, -4(%rbp)
.L13:
	.loc 2 42 29 discriminator 1
	movl	-4(%rbp), %eax
	movslq	%eax, %rdx
	.loc 2 42 35 discriminator 1
	movq	length(%rip), %rax
	cmpq	%rax, %rdx
	jne	.L14
.LBE7:
	.loc 2 47 17
	leaq	.LC5(%rip), %rax
	movq	%rax, %rdx
	movq	.refptr._ZSt4cout(%rip), %rax
	movq	%rax, %rcx
	call	_ZStlsISt11char_traitsIcEERSt13basic_ostreamIcT_ES5_PKc
	.loc 2 48 16
	call	getchar
	.loc 2 49 9
	nop
.L15:
	.loc 2 49 23 discriminator 2
	movq	.refptr._ZSt3cin(%rip), %rax
	movq	%rax, %rcx
	call	_ZNSi3getEv
	.loc 2 49 26 discriminator 1
	cmpl	$10, %eax
	setne	%al
	testb	%al, %al
	jne	.L15
	jmp	.L16
.L12:
.LBE6:
	.loc 2 54 15
	leaq	.LC6(%rip), %rax
	movq	%rax, %rcx
	call	_ZL6printfPKcz
	.loc 2 55 16
	call	getchar
.LEHE0:
.L16:
.LBE5:
	.loc 2 57 1
	movl	$1, %ebx
.L9:
	.loc 2 57 1 is_stmt 0 discriminator 1
	leaq	-48(%rbp), %rax
	movq	%rax, %rcx
	call	_ZNSt7__cxx1112basic_stringIcSt11char_traitsIcESaIcEED1Ev
	cmpl	$1, %ebx
	jmp	.L22
.L20:
	.loc 2 57 1
	movq	%rax, %rbx
	leaq	-48(%rbp), %rax
	movq	%rax, %rcx
	call	_ZNSt7__cxx1112basic_stringIcSt11char_traitsIcESaIcEED1Ev
	movq	%rbx, %rax
	movq	%rax, %rcx
.LEHB1:
	call	_Unwind_Resume
	nop
.LEHE1:
.L22:
	addq	$88, %rsp
	popq	%rbx
.LCFI10:
	popq	%rbp
.LCFI11:
	ret
.LFE1844:
	.def	__gxx_personality_seh0;	.scl	2;	.type	32;	.endef
	.seh_handler	__gxx_personality_seh0, @unwind, @except
	.seh_handlerdata
.LLSDA1844:
	.byte	0xff
	.byte	0xff
	.byte	0x1
	.uleb128 .LLSDACSE1844-.LLSDACSB1844
.LLSDACSB1844:
	.uleb128 .LEHB0-.LFB1844
	.uleb128 .LEHE0-.LEHB0
	.uleb128 .L20-.LFB1844
	.uleb128 0
	.uleb128 .LEHB1-.LFB1844
	.uleb128 .LEHE1-.LEHB1
	.uleb128 0
	.uleb128 0
.LLSDACSE1844:
	.text
	.seh_endproc
	.section .rdata,"dr"
.LC7:
	.ascii "\344\275\240\346\262\241\346\234\211\345\275\225\345\205\245\346\225\260\346\215\256\357\274\201\12\0"
.LC8:
	.ascii "\350\257\267\346\214\211\346\215\242\350\241\214\350\277\224\345\233\236\12\0"
	.text
	.globl	_Z8showDatav
	.def	_Z8showDatav;	.scl	2;	.type	32;	.endef
	.seh_proc	_Z8showDatav
_Z8showDatav:
.LFB1846:
	.loc 2 59 1 is_stmt 1
	pushq	%rbp
	.seh_pushreg	%rbp
.LCFI12:
	movq	%rsp, %rbp
	.seh_setframe	%rbp, 0
.LCFI13:
	subq	$48, %rsp
	.seh_stackalloc	48
	.seh_endprologue
.LBB8:
	.loc 2 60 15
	movq	table(%rip), %rax
	.loc 2 60 5
	testq	%rax, %rax
	jne	.L24
	.loc 2 62 15
	leaq	.LC7(%rip), %rax
	movq	%rax, %rcx
	call	_ZL6printfPKcz
	.loc 2 63 16
	call	getchar
.LBE8:
	.loc 2 74 1
	jmp	.L29
.L24:
.LBB11:
.LBB9:
.LBB10:
	.loc 2 67 18
	movl	$0, -4(%rbp)
	.loc 2 67 9
	jmp	.L26
.L27:
	.loc 2 69 30 discriminator 3
	movl	-4(%rbp), %eax
	movl	%eax, %edx
	movq	.refptr._ZSt4cout(%rip), %rax
	movq	%rax, %rcx
	call	_ZNSolsEi
	movq	%rax, %rcx
	leaq	.LC4(%rip), %rax
	movq	%rax, %rdx
	call	_ZStlsISt11char_traitsIcEERSt13basic_ostreamIcT_ES5_PKc
	.loc 2 69 50 discriminator 3
	movq	table(%rip), %rdx
	.loc 2 69 45 discriminator 3
	movl	-4(%rbp), %ecx
	movslq	%ecx, %rcx
	.loc 2 69 50 discriminator 3
	salq	$3, %rcx
	addq	%rcx, %rdx
	movsd	(%rdx), %xmm0
	movapd	%xmm0, %xmm1
	movq	%rax, %rcx
	call	_ZNSolsEd
	movq	%rax, %rcx
	.loc 2 69 55 discriminator 3
	movq	.refptr._ZSt4endlIcSt11char_traitsIcEERSt13basic_ostreamIT_T0_ES6_(%rip), %rax
	movq	%rax, %rdx
	call	_ZNSolsEPFRSoS_E
	.loc 2 67 9 discriminator 3
	addl	$1, -4(%rbp)
.L26:
	.loc 2 67 29 discriminator 1
	movl	-4(%rbp), %eax
	movslq	%eax, %rdx
	.loc 2 67 35 discriminator 1
	movq	length(%rip), %rax
	cmpq	%rax, %rdx
	jne	.L27
.LBE10:
	.loc 2 71 15
	leaq	.LC8(%rip), %rax
	movq	%rax, %rcx
	call	_ZL6printfPKcz
	.loc 2 72 9
	nop
.L28:
	.loc 2 72 23 discriminator 1
	movq	.refptr._ZSt3cin(%rip), %rax
	movq	%rax, %rcx
	call	_ZNSi3getEv
	.loc 2 72 26 discriminator 1
	cmpl	$10, %eax
	setne	%al
	testb	%al, %al
	jne	.L28
.L29:
.LBE9:
.LBE11:
	.loc 2 74 1
	nop
	addq	$48, %rsp
	popq	%rbp
.LCFI14:
	ret
.LFE1846:
	.seh_endproc
	.section .rdata,"dr"
.LC9:
	.ascii "\344\275\240\350\277\230\346\262\241\346\234\211\345\275\225\345\205\245\346\225\260\346\215\256\357\274\201\12\0"
	.align 8
.LC10:
	.ascii "\350\257\267\350\276\223\345\205\245\346\226\260\345\255\246\347\224\237\347\232\204\346\210\220\347\273\251\357\274\232\12\0"
.LC11:
	.ascii "\346\267\273\345\212\240\346\226\260\350\256\260\345\275\225\345\256\214\346\210\220\357\274\201\12\0"
	.align 8
.LC12:
	.ascii "\345\210\233\345\273\272\346\226\260\347\251\272\351\227\264\345\244\261\350\264\245\357\274\214\350\257\267\346\243\200\346\237\245\344\275\240\347\232\204\347\263\273\347\273\237\345\206\205\345\255\230\357\274\201\0"
	.text
	.globl	_Z7addDatav
	.def	_Z7addDatav;	.scl	2;	.type	32;	.endef
	.seh_proc	_Z7addDatav
_Z7addDatav:
.LFB1847:
	.loc 2 76 1
	pushq	%rbp
	.seh_pushreg	%rbp
.LCFI15:
	movq	%rsp, %rbp
	.seh_setframe	%rbp, 0
.LCFI16:
	subq	$64, %rsp
	.seh_stackalloc	64
	.seh_endprologue
.LBB12:
	.loc 2 77 15
	movq	table(%rip), %rax
	.loc 2 77 5
	testq	%rax, %rax
	jne	.L31
	.loc 2 79 15
	leaq	.LC9(%rip), %rax
	movq	%rax, %rcx
	call	_ZL6printfPKcz
	.loc 2 80 16
	call	getchar
.LBE12:
	.loc 2 115 1
	jmp	.L42
.L31:
.LBB20:
.LBB13:
	.loc 2 85 16
	movq	$0, -8(%rbp)
	.loc 2 86 15
	leaq	.LC10(%rip), %rax
	movq	%rax, %rcx
	call	_ZL6printfPKcz
	.loc 2 87 16
	leaq	-32(%rbp), %rax
	movq	%rax, %rdx
	movq	.refptr._ZSt3cin(%rip), %rax
	movq	%rax, %rcx
	call	_ZNSirsERd
	.loc 2 88 42
	movq	length(%rip), %rax
	addq	$1, %rax
	.loc 2 88 45
	movabsq	$1152921504606846975, %rdx
	cmpq	%rax, %rdx
	jb	.L33
	.loc 2 88 45 is_stmt 0 discriminator 1
	salq	$3, %rax
	movq	%rax, %rcx
	call	_Znay
	movq	%rax, -24(%rbp)
	.loc 2 89 9 is_stmt 1 discriminator 1
	movq	length(%rip), %rax
	addq	$1, %rax
	movq	%rax, length(%rip)
.LBB14:
	.loc 2 90 9 discriminator 1
	cmpq	$0, -24(%rbp)
	je	.L35
	jmp	.L41
.L33:
.LBE14:
	.loc 2 88 45 discriminator 2
	call	__cxa_throw_bad_array_new_length
.L41:
.LBB17:
.LBB15:
.LBB16:
	.loc 2 92 22
	movl	$0, -12(%rbp)
	.loc 2 92 13
	jmp	.L36
.L39:
	.loc 2 94 17
	cmpl	$5, -12(%rbp)
	jne	.L37
	.loc 2 96 26
	movl	-12(%rbp), %eax
	cltq
	.loc 2 96 31
	leaq	0(,%rax,8), %rdx
	movq	-24(%rbp), %rax
	addq	%rdx, %rax
	.loc 2 96 33
	movsd	-32(%rbp), %xmm0
	movsd	%xmm0, (%rax)
	.loc 2 97 30
	movq	$1, -8(%rbp)
	jmp	.L38
.L37:
	.loc 2 101 57
	movq	table(%rip), %rdx
	.loc 2 101 41
	movl	-12(%rbp), %eax
	cltq
	.loc 2 101 47
	subq	-8(%rbp), %rax
	.loc 2 101 57
	salq	$3, %rax
	addq	%rax, %rdx
	.loc 2 101 26
	movl	-12(%rbp), %eax
	cltq
	.loc 2 101 31
	leaq	0(,%rax,8), %rcx
	movq	-24(%rbp), %rax
	addq	%rcx, %rax
	.loc 2 101 57
	movsd	(%rdx), %xmm0
	.loc 2 101 33
	movsd	%xmm0, (%rax)
.L38:
	.loc 2 92 13 discriminator 2
	addl	$1, -12(%rbp)
.L36:
	.loc 2 92 33 discriminator 1
	movl	-12(%rbp), %eax
	movslq	%eax, %rdx
	.loc 2 92 39 discriminator 1
	movq	length(%rip), %rax
	cmpq	%rax, %rdx
	jne	.L39
.LBE16:
	.loc 2 104 17
	movq	table(%rip), %rax
	movq	%rax, %rcx
	call	free
	.loc 2 105 19
	movq	-24(%rbp), %rax
	movq	%rax, table(%rip)
	.loc 2 106 19
	leaq	.LC11(%rip), %rax
	movq	%rax, %rcx
	call	_ZL6printfPKcz
	.loc 2 107 20
	call	getchar
.LBE15:
.LBE17:
.LBE13:
.LBE20:
	.loc 2 115 1
	jmp	.L42
.L35:
.LBB21:
.LBB19:
.LBB18:
	.loc 2 111 21
	leaq	.LC12(%rip), %rax
	movq	%rax, %rdx
	movq	.refptr._ZSt4cout(%rip), %rax
	movq	%rax, %rcx
	call	_ZStlsISt11char_traitsIcEERSt13basic_ostreamIcT_ES5_PKc
	.loc 2 112 20
	call	getchar
.L42:
.LBE18:
.LBE19:
.LBE21:
	.loc 2 115 1
	nop
	addq	$64, %rsp
	popq	%rbp
.LCFI17:
	ret
.LFE1847:
	.seh_endproc
	.section .rdata,"dr"
.LC13:
	.ascii "\344\275\240\346\262\241\346\234\211\345\275\225\345\205\245\346\225\260\346\215\256\357\274\201\0"
.LC14:
	.ascii "\345\210\240\351\231\244\345\256\214\346\210\220\357\274\201\0"
	.text
	.globl	_Z10deleteDatav
	.def	_Z10deleteDatav;	.scl	2;	.type	32;	.endef
	.seh_proc	_Z10deleteDatav
_Z10deleteDatav:
.LFB1848:
	.loc 2 117 1
	pushq	%rbp
	.seh_pushreg	%rbp
.LCFI18:
	movq	%rsp, %rbp
	.seh_setframe	%rbp, 0
.LCFI19:
	subq	$48, %rsp
	.seh_stackalloc	48
	.seh_endprologue
.LBB22:
	.loc 2 118 15
	movq	table(%rip), %rax
	.loc 2 118 5
	testq	%rax, %rax
	jne	.L44
	.loc 2 120 17
	leaq	.LC13(%rip), %rax
	movq	%rax, %rdx
	movq	.refptr._ZSt4cout(%rip), %rax
	movq	%rax, %rcx
	call	_ZStlsISt11char_traitsIcEERSt13basic_ostreamIcT_ES5_PKc
	.loc 2 121 16
	call	getchar
.LBE22:
	.loc 2 139 1
	jmp	.L49
.L44:
.LBB25:
.LBB23:
	.loc 2 125 16
	movq	$0, -8(%rbp)
.LBB24:
	.loc 2 126 18
	movl	$0, -12(%rbp)
	.loc 2 126 9
	jmp	.L46
.L48:
	.loc 2 128 13
	cmpl	$4, -12(%rbp)
	jle	.L47
	.loc 2 128 31 discriminator 1
	movl	-12(%rbp), %eax
	movslq	%eax, %rdx
	.loc 2 128 47 discriminator 1
	movq	length(%rip), %rax
	subq	$1, %rax
	.loc 2 128 28 discriminator 1
	cmpq	%rax, %rdx
	je	.L47
	.loc 2 130 47
	movq	table(%rip), %rax
	movl	-12(%rbp), %edx
	movslq	%edx, %rdx
	addq	$1, %rdx
	salq	$3, %rdx
	addq	%rax, %rdx
	.loc 2 130 28
	movq	table(%rip), %rax
	.loc 2 130 23
	movl	-12(%rbp), %ecx
	movslq	%ecx, %rcx
	.loc 2 130 28
	salq	$3, %rcx
	addq	%rcx, %rax
	.loc 2 130 47
	movsd	(%rdx), %xmm0
	.loc 2 130 30
	movsd	%xmm0, (%rax)
	.loc 2 131 17
	cmpq	$0, -8(%rbp)
	jne	.L47
	.loc 2 132 30
	movq	$1, -8(%rbp)
.L47:
	.loc 2 126 9 discriminator 2
	addl	$1, -12(%rbp)
.L46:
	.loc 2 126 29 discriminator 1
	movl	-12(%rbp), %eax
	movslq	%eax, %rdx
	.loc 2 126 35 discriminator 1
	movq	length(%rip), %rax
	cmpq	%rax, %rdx
	jne	.L48
.LBE24:
	.loc 2 135 16
	movq	length(%rip), %rax
	subq	-8(%rbp), %rax
	movq	%rax, length(%rip)
	.loc 2 136 17
	leaq	.LC14(%rip), %rax
	movq	%rax, %rdx
	movq	.refptr._ZSt4cout(%rip), %rax
	movq	%rax, %rcx
	call	_ZStlsISt11char_traitsIcEERSt13basic_ostreamIcT_ES5_PKc
	.loc 2 137 16
	call	getchar
.L49:
.LBE23:
.LBE25:
	.loc 2 139 1
	nop
	addq	$48, %rsp
	popq	%rbp
.LCFI20:
	ret
.LFE1848:
	.seh_endproc
	.section .rdata,"dr"
	.align 8
.LC15:
	.ascii "\350\257\267\350\276\223\345\205\245\350\246\201\344\277\256\346\224\271\347\232\204\345\255\246\347\224\237\347\264\242\345\274\225\357\274\232\0"
.LC16:
	.ascii "\346\262\241\346\234\211\350\277\231\344\270\252\345\255\246\347\224\237\357\274\201\12\0"
.LC17:
	.ascii "\350\257\267\350\276\223\345\205\245\350\246\201\344\277\256\346\224\271\347\232\204\345\200\274:\0"
.LC18:
	.ascii "\344\277\256\346\224\271\345\256\214\346\210\220\357\274\201\0"
	.text
	.globl	_Z10modifyDatav
	.def	_Z10modifyDatav;	.scl	2;	.type	32;	.endef
	.seh_proc	_Z10modifyDatav
_Z10modifyDatav:
.LFB1849:
	.loc 2 141 1
	pushq	%rbp
	.seh_pushreg	%rbp
.LCFI21:
	movq	%rsp, %rbp
	.seh_setframe	%rbp, 0
.LCFI22:
	subq	$48, %rsp
	.seh_stackalloc	48
	.seh_endprologue
.LBB26:
	.loc 2 142 15
	movq	table(%rip), %rax
	.loc 2 142 5
	testq	%rax, %rax
	jne	.L54
	.loc 2 144 17
	leaq	.LC13(%rip), %rax
	movq	%rax, %rdx
	movq	.refptr._ZSt4cout(%rip), %rax
	movq	%rax, %rcx
	call	_ZStlsISt11char_traitsIcEERSt13basic_ostreamIcT_ES5_PKc
	.loc 2 145 16
	call	getchar
.LBE26:
	.loc 2 170 1
	jmp	.L55
.L54:
.LBB28:
.LBB27:
	.loc 2 149 5
	nop
.L51:
	.loc 2 152 17
	leaq	.LC15(%rip), %rax
	movq	%rax, %rdx
	movq	.refptr._ZSt4cout(%rip), %rax
	movq	%rax, %rcx
	call	_ZStlsISt11char_traitsIcEERSt13basic_ostreamIcT_ES5_PKc
	.loc 2 153 16
	leaq	-8(%rbp), %rax
	movq	%rax, %rdx
	movq	.refptr._ZSt3cin(%rip), %rax
	movq	%rax, %rcx
	call	_ZNSirsERy
	.loc 2 155 19
	movq	-8(%rbp), %rdx
	movq	length(%rip), %rax
	.loc 2 155 9
	cmpq	%rax, %rdx
	jb	.L53
	.loc 2 157 21
	leaq	.LC16(%rip), %rax
	movq	%rax, %rdx
	movq	.refptr._ZSt4cout(%rip), %rax
	movq	%rax, %rcx
	call	_ZStlsISt11char_traitsIcEERSt13basic_ostreamIcT_ES5_PKc
	.loc 2 158 20
	call	getchar
	.loc 2 159 18
	jmp	.L51
.L53:
	.loc 2 163 21
	leaq	.LC17(%rip), %rax
	movq	%rax, %rdx
	movq	.refptr._ZSt4cout(%rip), %rax
	movq	%rax, %rcx
	call	_ZStlsISt11char_traitsIcEERSt13basic_ostreamIcT_ES5_PKc
	.loc 2 164 20
	leaq	-16(%rbp), %rax
	movq	%rax, %rdx
	movq	.refptr._ZSt3cin(%rip), %rax
	movq	%rax, %rcx
	call	_ZNSirsERd
	.loc 2 165 24
	movq	table(%rip), %rax
	movq	-8(%rbp), %rdx
	salq	$3, %rdx
	addq	%rdx, %rax
	.loc 2 165 26
	movsd	-16(%rbp), %xmm0
	movsd	%xmm0, (%rax)
	.loc 2 166 21
	leaq	.LC18(%rip), %rax
	movq	%rax, %rdx
	movq	.refptr._ZSt4cout(%rip), %rax
	movq	%rax, %rcx
	call	_ZStlsISt11char_traitsIcEERSt13basic_ostreamIcT_ES5_PKc
	.loc 2 167 20
	call	getchar
.L55:
.LBE27:
.LBE28:
	.loc 2 170 1
	nop
	addq	$48, %rsp
	popq	%rbp
.LCFI23:
	ret
.LFE1849:
	.seh_endproc
	.section .rdata,"dr"
.LC20:
	.ascii "\346\211\200\346\234\211\345\255\246\347\224\237\347\232\204\346\200\273\345\210\206\344\270\272\357\274\232\0"
	.align 8
.LC21:
	.ascii "\346\211\200\346\234\211\345\255\246\347\224\237\347\232\204\345\271\263\345\235\207\345\210\206\344\270\272\357\274\232\0"
	.align 8
.LC22:
	.ascii "\346\211\200\346\234\211\345\255\246\347\224\237\347\232\204\346\234\200\351\253\230\345\210\206\344\270\272\357\274\232\0"
.LC23:
	.ascii "\350\257\267\346\214\211\345\233\236\350\275\246\351\200\200\345\207\272......\12\0"
	.text
	.globl	_Z14showStatisticsv
	.def	_Z14showStatisticsv;	.scl	2;	.type	32;	.endef
	.seh_proc	_Z14showStatisticsv
_Z14showStatisticsv:
.LFB1850:
	.loc 2 172 1
	pushq	%rbp
	.seh_pushreg	%rbp
.LCFI24:
	movq	%rsp, %rbp
	.seh_setframe	%rbp, 0
.LCFI25:
	subq	$64, %rsp
	.seh_stackalloc	64
	.seh_endprologue
	.loc 2 173 12
	pxor	%xmm0, %xmm0
	movsd	%xmm0, -8(%rbp)
.LBB29:
	.loc 2 174 15
	movq	table(%rip), %rax
	.loc 2 174 5
	testq	%rax, %rax
	jne	.L57
	.loc 2 176 17
	leaq	.LC13(%rip), %rax
	movq	%rax, %rdx
	movq	.refptr._ZSt4cout(%rip), %rax
	movq	%rax, %rcx
	call	_ZStlsISt11char_traitsIcEERSt13basic_ostreamIcT_ES5_PKc
	.loc 2 177 16
	call	getchar
.LBE29:
	.loc 2 194 1
	jmp	.L67
.L57:
.LBB32:
.LBB30:
	.loc 2 181 23
	movq	table(%rip), %rax
	.loc 2 181 14
	movsd	(%rax), %xmm0
	movsd	%xmm0, -16(%rbp)
.LBB31:
	.loc 2 182 18
	movl	$0, -20(%rbp)
	.loc 2 182 9
	jmp	.L59
.L62:
	.loc 2 184 32
	movq	table(%rip), %rax
	.loc 2 184 27
	movl	-20(%rbp), %edx
	movslq	%edx, %rdx
	.loc 2 184 32
	salq	$3, %rdx
	addq	%rdx, %rax
	movsd	(%rax), %xmm0
	.loc 2 184 18
	movsd	-8(%rbp), %xmm1
	addsd	%xmm1, %xmm0
	movsd	%xmm0, -8(%rbp)
	.loc 2 185 28
	movq	table(%rip), %rax
	.loc 2 185 23
	movl	-20(%rbp), %edx
	movslq	%edx, %rdx
	.loc 2 185 28
	salq	$3, %rdx
	addq	%rdx, %rax
	movsd	(%rax), %xmm0
	.loc 2 185 13
	comisd	-16(%rbp), %xmm0
	jbe	.L60
	.loc 2 186 35
	movq	table(%rip), %rax
	.loc 2 186 30
	movl	-20(%rbp), %edx
	movslq	%edx, %rdx
	.loc 2 186 35
	salq	$3, %rdx
	addq	%rdx, %rax
	.loc 2 186 22
	movsd	(%rax), %xmm0
	movsd	%xmm0, -16(%rbp)
.L60:
	.loc 2 182 9 discriminator 2
	addl	$1, -20(%rbp)
.L59:
	.loc 2 182 29 discriminator 1
	movl	-20(%rbp), %eax
	movslq	%eax, %rdx
	.loc 2 182 35 discriminator 1
	movq	length(%rip), %rax
	cmpq	%rax, %rdx
	jne	.L62
.LBE31:
	.loc 2 188 17
	leaq	.LC20(%rip), %rax
	movq	%rax, %rdx
	movq	.refptr._ZSt4cout(%rip), %rax
	movq	%rax, %rcx
	call	_ZStlsISt11char_traitsIcEERSt13basic_ostreamIcT_ES5_PKc
	.loc 2 188 55
	movsd	-8(%rbp), %xmm0
	movapd	%xmm0, %xmm1
	movq	%rax, %rcx
	call	_ZNSolsEd
	movq	%rax, %rcx
	.loc 2 188 60
	movq	.refptr._ZSt4endlIcSt11char_traitsIcEERSt13basic_ostreamIT_T0_ES6_(%rip), %rax
	movq	%rax, %rdx
	call	_ZNSolsEPFRSoS_E
	.loc 2 189 17
	leaq	.LC21(%rip), %rax
	movq	%rax, %rdx
	movq	.refptr._ZSt4cout(%rip), %rax
	movq	%rax, %rcx
	call	_ZStlsISt11char_traitsIcEERSt13basic_ostreamIcT_ES5_PKc
	movq	%rax, %rcx
	.loc 2 189 67
	movq	length(%rip), %rax
	testq	%rax, %rax
	js	.L63
	pxor	%xmm0, %xmm0
	cvtsi2sdq	%rax, %xmm0
	jmp	.L64
.L63:
	movq	%rax, %rdx
	shrq	%rdx
	andl	$1, %eax
	orq	%rax, %rdx
	pxor	%xmm0, %xmm0
	cvtsi2sdq	%rdx, %xmm0
	addsd	%xmm0, %xmm0
.L64:
	movsd	-8(%rbp), %xmm1
	divsd	%xmm0, %xmm1
	call	_ZNSolsEd
	movq	%rax, %rcx
	.loc 2 189 72
	movq	.refptr._ZSt4endlIcSt11char_traitsIcEERSt13basic_ostreamIT_T0_ES6_(%rip), %rax
	movq	%rax, %rdx
	call	_ZNSolsEPFRSoS_E
	.loc 2 190 17
	leaq	.LC22(%rip), %rax
	movq	%rax, %rdx
	movq	.refptr._ZSt4cout(%rip), %rax
	movq	%rax, %rcx
	call	_ZStlsISt11char_traitsIcEERSt13basic_ostreamIcT_ES5_PKc
	.loc 2 190 58
	movsd	-16(%rbp), %xmm0
	movapd	%xmm0, %xmm1
	movq	%rax, %rcx
	call	_ZNSolsEd
	movq	%rax, %rcx
	.loc 2 190 63
	movq	.refptr._ZSt4endlIcSt11char_traitsIcEERSt13basic_ostreamIT_T0_ES6_(%rip), %rax
	movq	%rax, %rdx
	call	_ZNSolsEPFRSoS_E
	.loc 2 191 17
	leaq	.LC23(%rip), %rax
	movq	%rax, %rdx
	movq	.refptr._ZSt4cout(%rip), %rax
	movq	%rax, %rcx
	call	_ZStlsISt11char_traitsIcEERSt13basic_ostreamIcT_ES5_PKc
	.loc 2 192 9
	nop
.L65:
	.loc 2 192 23 discriminator 1
	movq	.refptr._ZSt3cin(%rip), %rax
	movq	%rax, %rcx
	call	_ZNSi3getEv
	.loc 2 192 26 discriminator 1
	cmpl	$10, %eax
	setne	%al
	testb	%al, %al
	jne	.L65
.L67:
.LBE30:
.LBE32:
	.loc 2 194 1
	nop
	addq	$64, %rsp
	popq	%rbp
.LCFI26:
	ret
.LFE1850:
	.seh_endproc
	.section .rdata,"dr"
.LC24:
	.ascii "\350\257\267\350\276\223\345\205\245\347\224\250\346\210\267\345\220\215\357\274\232\0"
.LC25:
	.ascii "\350\257\267\350\276\223\345\205\245\345\257\206\347\240\201\357\274\232\0"
.LC26:
	.ascii "\350\257\267\350\276\223\345\205\245\347\254\254\345\207\240\346\254\241\347\231\273\351\231\206\357\274\232\0"
.LC27:
	.ascii "jiangquanxing\0"
.LC28:
	.ascii "8888jqx\0"
	.align 8
.LC29:
	.ascii "\347\224\250\346\210\267\345\220\215\346\210\226\345\257\206\347\240\201\350\276\223\345\205\245\351\224\231\350\257\257\12\0"
	.align 8
.LC30:
	.ascii "\344\275\240\345\267\262\347\273\217\345\210\260\344\273\212\345\244\251\347\232\204\347\231\273\345\275\225\344\270\212\351\231\220\357\274\214\350\257\267\346\230\216\345\244\251\345\206\215\347\231\273\345\275\225\357\274\201\0"
	.text
	.globl	_Z5loginv
	.def	_Z5loginv;	.scl	2;	.type	32;	.endef
	.seh_proc	_Z5loginv
_Z5loginv:
.LFB1851:
	.loc 2 197 1
	pushq	%rbp
	.seh_pushreg	%rbp
.LCFI27:
	pushq	%rbx
	.seh_pushreg	%rbx
.LCFI28:
	subq	$120, %rsp
	.seh_stackalloc	120
.LCFI29:
	leaq	112(%rsp), %rbp
	.seh_setframe	%rbp, 112
.LCFI30:
	.seh_endprologue
	.loc 2 198 12
	leaq	-32(%rbp), %rax
	movq	%rax, %rcx
	call	_ZNSt7__cxx1112basic_stringIcSt11char_traitsIcESaIcEEC1Ev
	.loc 2 198 23
	leaq	-64(%rbp), %rax
	movq	%rax, %rcx
	call	_ZNSt7__cxx1112basic_stringIcSt11char_traitsIcESaIcEEC1Ev
	.loc 2 199 18
	movl	$0, -68(%rbp)
	.loc 2 200 13
	leaq	.LC24(%rip), %rax
	movq	%rax, %rdx
	movq	.refptr._ZSt4cout(%rip), %rax
	movq	%rax, %rcx
.LEHB2:
	call	_ZStlsISt11char_traitsIcEERSt13basic_ostreamIcT_ES5_PKc
	.loc 2 201 12
	leaq	-32(%rbp), %rax
	movq	%rax, %rdx
	movq	.refptr._ZSt3cin(%rip), %rax
	movq	%rax, %rcx
	call	_ZStrsIcSt11char_traitsIcESaIcEERSt13basic_istreamIT_T0_ES7_RNSt7__cxx1112basic_stringIS4_S5_T1_EE
	.loc 2 202 13
	leaq	.LC25(%rip), %rax
	movq	%rax, %rdx
	movq	.refptr._ZSt4cout(%rip), %rax
	movq	%rax, %rcx
	call	_ZStlsISt11char_traitsIcEERSt13basic_ostreamIcT_ES5_PKc
	.loc 2 203 12
	leaq	-64(%rbp), %rax
	movq	%rax, %rdx
	movq	.refptr._ZSt3cin(%rip), %rax
	movq	%rax, %rcx
	call	_ZStrsIcSt11char_traitsIcESaIcEERSt13basic_istreamIT_T0_ES7_RNSt7__cxx1112basic_stringIS4_S5_T1_EE
	.loc 2 204 13
	leaq	.LC26(%rip), %rax
	movq	%rax, %rdx
	movq	.refptr._ZSt4cout(%rip), %rax
	movq	%rax, %rcx
	call	_ZStlsISt11char_traitsIcEERSt13basic_ostreamIcT_ES5_PKc
	.loc 2 205 12
	leaq	-68(%rbp), %rax
	movq	%rax, %rdx
	movq	.refptr._ZSt3cin(%rip), %rax
	movq	%rax, %rcx
	call	_ZNSirsERj
	.loc 2 206 19
	leaq	-32(%rbp), %rax
	leaq	.LC27(%rip), %rdx
	movq	%rax, %rcx
	call	_ZStneIcSt11char_traitsIcESaIcEEbRKNSt7__cxx1112basic_stringIT_T0_T1_EEPKS5_
	.loc 2 206 38
	testb	%al, %al
	jne	.L69
	.loc 2 206 55 discriminator 3
	leaq	-64(%rbp), %rax
	leaq	.LC28(%rip), %rdx
	movq	%rax, %rcx
	call	_ZStneIcSt11char_traitsIcESaIcEEbRKNSt7__cxx1112basic_stringIT_T0_T1_EEPKS5_
	.loc 2 206 38 discriminator 3
	testb	%al, %al
	je	.L70
.L69:
	.loc 2 206 38 is_stmt 0 discriminator 5
	movl	$1, %eax
	jmp	.L71
.L70:
	.loc 2 206 38 discriminator 6
	movl	$0, %eax
.L71:
	.loc 2 206 5 is_stmt 1 discriminator 8
	testb	%al, %al
	je	.L72
	.loc 2 208 15
	leaq	.LC1(%rip), %rax
	movq	%rax, %rcx
	call	system
	.loc 2 209 17
	leaq	.LC29(%rip), %rax
	movq	%rax, %rdx
	movq	.refptr._ZSt4cout(%rip), %rax
	movq	%rax, %rcx
	call	_ZStlsISt11char_traitsIcEERSt13basic_ostreamIcT_ES5_PKc
	jmp	.L73
.L72:
	.loc 2 211 21
	movl	-68(%rbp), %eax
	.loc 2 211 10
	cmpl	$5, %eax
	jbe	.L73
	.loc 2 213 17
	leaq	.LC30(%rip), %rax
	movq	%rax, %rdx
	movq	.refptr._ZSt4cout(%rip), %rax
	movq	%rax, %rcx
	call	_ZStlsISt11char_traitsIcEERSt13basic_ostreamIcT_ES5_PKc
.LEHE2:
.L73:
	.loc 2 215 1
	leaq	-64(%rbp), %rax
	movq	%rax, %rcx
	call	_ZNSt7__cxx1112basic_stringIcSt11char_traitsIcESaIcEED1Ev
	leaq	-32(%rbp), %rax
	movq	%rax, %rcx
	call	_ZNSt7__cxx1112basic_stringIcSt11char_traitsIcESaIcEED1Ev
	jmp	.L76
.L75:
	movq	%rax, %rbx
	leaq	-64(%rbp), %rax
	movq	%rax, %rcx
	call	_ZNSt7__cxx1112basic_stringIcSt11char_traitsIcESaIcEED1Ev
	leaq	-32(%rbp), %rax
	movq	%rax, %rcx
	call	_ZNSt7__cxx1112basic_stringIcSt11char_traitsIcESaIcEED1Ev
	movq	%rbx, %rax
	movq	%rax, %rcx
.LEHB3:
	call	_Unwind_Resume
	nop
.LEHE3:
.L76:
	addq	$120, %rsp
	popq	%rbx
.LCFI31:
	popq	%rbp
.LCFI32:
	ret
.LFE1851:
	.seh_handler	__gxx_personality_seh0, @unwind, @except
	.seh_handlerdata
.LLSDA1851:
	.byte	0xff
	.byte	0xff
	.byte	0x1
	.uleb128 .LLSDACSE1851-.LLSDACSB1851
.LLSDACSB1851:
	.uleb128 .LEHB2-.LFB1851
	.uleb128 .LEHE2-.LEHB2
	.uleb128 .L75-.LFB1851
	.uleb128 0
	.uleb128 .LEHB3-.LFB1851
	.uleb128 .LEHE3-.LEHB3
	.uleb128 0
	.uleb128 0
.LLSDACSE1851:
	.text
	.seh_endproc
	.section .rdata,"dr"
	.align 8
.LC31:
	.ascii "\12\12\12\12\12\11\11\11|=======================================================|\12\11\11\11|\11\11\11\11\11\11\11|\12\11\11\11|\11\11  \346\254\242\350\277\216\346\235\245\345\210\260\345\255\246\347\224\237\346\210\220\347\273\251\347\256\241\347\220\206\347\263\273\347\273\237       \11|\12\11\11\11|\11\11\11\11\11\11\11|\12\11\11\11|=======================================================|\12\11\11\11|\11\11     \350\257\267\351\200\211\346\213\251\350\246\201\346\223\215\344\275\234\347\232\204\345\221\275\344\273\244         \11|\12\11\11\11|-------------------------------------------------------|\12\11\11\11|\11\11\11\11\11\11\11|\12\11\11\11|\11\11    1.\345\275\225\345\205\245\345\255\246\347\224\237\344\277\241\346\201\257\11\11\11|\12\11\11\11|\11\11    2.\346\230\276\347\244\272\345\255\246\347\224\237\344\277\241\346\201\257\11\11\11|\12\11\11\11|\11\11    3.\345\242\236\345\212\240\345\255\246\347\224\237\344\277\241\346\201\257\11\11\11|\12\11\11\11|\11\11    4.\345\210\240\351\231\244\345\255\246\347\224\237\344\277\241\346\201\257\11\11\11|\12\11\11\11|\11\11    5.\344\277\256\346\224\271\345\255\246\347\224\237\344\277\241\346\201\257\11\11\11|\12\11\11\11|\11\11    6.\350\276\223\345\207\272\346\200\273\345\210\206\343\200\201\345\271\263\345\235\207\345\210\206\343\200\201\346\234\200\351\253\230\345\210\206\11\11|\12\11\11\11|\11\11    7.\351\200\200\345\207\272\347\263\273\347\273\237\11\11\11\11|\12\11\11\11|\11\11\11\11\11\11\11|\12\11\11\11|=======================================================|\12\0"
	.text
	.globl	_Z12showMainPagev
	.def	_Z12showMainPagev;	.scl	2;	.type	32;	.endef
	.seh_proc	_Z12showMainPagev
_Z12showMainPagev:
.LFB1852:
	.loc 2 218 1
	pushq	%rbp
	.seh_pushreg	%rbp
.LCFI33:
	movq	%rsp, %rbp
	.seh_setframe	%rbp, 0
.LCFI34:
	subq	$32, %rsp
	.seh_stackalloc	32
	.seh_endprologue
	.loc 2 219 11
	leaq	.LC1(%rip), %rax
	movq	%rax, %rcx
	call	system
	.loc 2 237 13
	leaq	.LC31(%rip), %rax
	movq	%rax, %rdx
	movq	.refptr._ZSt4cout(%rip), %rax
	movq	%rax, %rcx
	call	_ZStlsISt11char_traitsIcEERSt13basic_ostreamIcT_ES5_PKc
	movq	%rax, %rcx
	.loc 2 238 13
	movq	.refptr._ZSt4endlIcSt11char_traitsIcEERSt13basic_ostreamIT_T0_ES6_(%rip), %rax
	movq	%rax, %rdx
	call	_ZNSolsEPFRSoS_E
	.loc 2 239 1
	nop
	addq	$32, %rsp
	popq	%rbp
.LCFI35:
	ret
.LFE1852:
	.seh_endproc
	.def	__main;	.scl	2;	.type	32;	.endef
	.section .rdata,"dr"
.LC32:
	.ascii "chcp 65001\0"
.LC33:
	.ascii "\350\257\267\350\276\223\345\205\245\346\255\243\347\241\256\347\232\204\347\274\226\345\217\267\357\274\201\12\0"
	.text
	.globl	main
	.def	main;	.scl	2;	.type	32;	.endef
	.seh_proc	main
main:
.LFB1853:
	.loc 2 242 1
	pushq	%rbp
	.seh_pushreg	%rbp
.LCFI36:
	movq	%rsp, %rbp
	.seh_setframe	%rbp, 0
.LCFI37:
	subq	$48, %rsp
	.seh_stackalloc	48
	.seh_endprologue
	.loc 2 242 1
	call	__main
	.loc 2 243 11
	leaq	.LC32(%rip), %rax
	movq	%rax, %rcx
	call	system
	.loc 2 244 11
	leaq	.LC1(%rip), %rax
	movq	%rax, %rcx
	call	system
	.loc 2 248 10
	movb	$1, -1(%rbp)
	.loc 2 249 9
	movl	$0, -8(%rbp)
	.loc 2 250 5
	jmp	.L79
.L89:
	.loc 2 252 21
	call	_Z12showMainPagev
	.loc 2 254 16
	leaq	-8(%rbp), %rax
	movq	%rax, %rdx
	movq	.refptr._ZSt3cin(%rip), %rax
	movq	%rax, %rcx
	call	_ZNSirsERi
	.loc 2 255 16
	call	getchar
	.loc 2 256 15
	leaq	.LC1(%rip), %rax
	movq	%rax, %rcx
	call	system
	.loc 2 257 9
	movl	-8(%rbp), %eax
	cmpl	$7, %eax
	ja	.L80
	movl	%eax, %eax
	leaq	0(,%rax,4), %rdx
	leaq	.L82(%rip), %rax
	movl	(%rdx,%rax), %eax
	cltq
	leaq	.L82(%rip), %rdx
	addq	%rdx, %rax
	jmp	*%rax
	.section .rdata,"dr"
	.align 4
.L82:
	.long	.L80-.L82
	.long	.L88-.L82
	.long	.L87-.L82
	.long	.L86-.L82
	.long	.L85-.L82
	.long	.L84-.L82
	.long	.L83-.L82
	.long	.L81-.L82
	.text
.L88:
	.loc 2 260 21
	call	_Z8initDatav
	.loc 2 261 13
	jmp	.L79
.L87:
	.loc 2 263 21
	call	_Z8showDatav
	.loc 2 264 13
	jmp	.L79
.L86:
	.loc 2 266 20
	call	_Z7addDatav
	.loc 2 267 13
	jmp	.L79
.L85:
	.loc 2 269 23
	call	_Z10deleteDatav
	.loc 2 270 13
	jmp	.L79
.L84:
	.loc 2 272 23
	call	_Z10modifyDatav
	.loc 2 273 13
	jmp	.L79
.L83:
	.loc 2 275 27
	call	_Z14showStatisticsv
	.loc 2 276 13
	jmp	.L79
.L81:
	.loc 2 278 18
	xorb	$1, -1(%rbp)
	.loc 2 279 13
	jmp	.L79
.L80:
	.loc 2 281 19
	leaq	.LC33(%rip), %rax
	movq	%rax, %rcx
	call	_ZL6printfPKcz
	.loc 2 282 20
	call	getchar
.L79:
	.loc 2 250 5
	cmpb	$0, -1(%rbp)
	jne	.L89
	.loc 2 285 15
	movq	table(%rip), %rax
	.loc 2 285 5
	testq	%rax, %rax
	je	.L90
	.loc 2 286 13
	movq	table(%rip), %rax
	movq	%rax, %rcx
	call	free
.L90:
	.loc 2 287 12
	movl	$0, %eax
	.loc 2 288 1
	addq	$48, %rsp
	popq	%rbp
.LCFI38:
	ret
.LFE1853:
	.seh_endproc
	.section	.text$_ZStneIcSt11char_traitsIcESaIcEEbRKNSt7__cxx1112basic_stringIT_T0_T1_EEPKS5_,"x"
	.linkonce discard
	.globl	_ZStneIcSt11char_traitsIcESaIcEEbRKNSt7__cxx1112basic_stringIT_T0_T1_EEPKS5_
	.def	_ZStneIcSt11char_traitsIcESaIcEEbRKNSt7__cxx1112basic_stringIT_T0_T1_EEPKS5_;	.scl	2;	.type	32;	.endef
	.seh_proc	_ZStneIcSt11char_traitsIcESaIcEEbRKNSt7__cxx1112basic_stringIT_T0_T1_EEPKS5_
_ZStneIcSt11char_traitsIcESaIcEEbRKNSt7__cxx1112basic_stringIT_T0_T1_EEPKS5_:
.LFB2127:
	.file 3 "D:/Env/msys64/mingw64/include/c++/12.1.0/bits/basic_string.h"
	.loc 3 3678 5
	pushq	%rbp
	.seh_pushreg	%rbp
.LCFI39:
	movq	%rsp, %rbp
	.seh_setframe	%rbp, 0
.LCFI40:
	subq	$32, %rsp
	.seh_stackalloc	32
	.seh_endprologue
	movq	%rcx, 16(%rbp)
	movq	%rdx, 24(%rbp)
	.loc 3 3680 22
	movq	24(%rbp), %rdx
	movq	16(%rbp), %rax
	movq	%rax, %rcx
	call	_ZSteqIcSt11char_traitsIcESaIcEEbRKNSt7__cxx1112basic_stringIT_T0_T1_EEPKS5_
	.loc 3 3680 30
	xorl	$1, %eax
	.loc 3 3680 33
	addq	$32, %rsp
	popq	%rbp
.LCFI41:
	ret
.LFE2127:
	.seh_endproc
	.section	.text$_ZSteqIcSt11char_traitsIcESaIcEEbRKNSt7__cxx1112basic_stringIT_T0_T1_EEPKS5_,"x"
	.linkonce discard
	.globl	_ZSteqIcSt11char_traitsIcESaIcEEbRKNSt7__cxx1112basic_stringIT_T0_T1_EEPKS5_
	.def	_ZSteqIcSt11char_traitsIcESaIcEEbRKNSt7__cxx1112basic_stringIT_T0_T1_EEPKS5_;	.scl	2;	.type	32;	.endef
	.seh_proc	_ZSteqIcSt11char_traitsIcESaIcEEbRKNSt7__cxx1112basic_stringIT_T0_T1_EEPKS5_
_ZSteqIcSt11char_traitsIcESaIcEEbRKNSt7__cxx1112basic_stringIT_T0_T1_EEPKS5_:
.LFB2236:
	.loc 3 3599 5
	pushq	%rbp
	.seh_pushreg	%rbp
.LCFI42:
	movq	%rsp, %rbp
	.seh_setframe	%rbp, 0
.LCFI43:
	subq	$32, %rsp
	.seh_stackalloc	32
	.seh_endprologue
	movq	%rcx, 16(%rbp)
	movq	%rdx, 24(%rbp)
	.loc 3 3601 27
	movq	24(%rbp), %rdx
	movq	16(%rbp), %rax
	movq	%rax, %rcx
	call	_ZNKSt7__cxx1112basic_stringIcSt11char_traitsIcESaIcEE7compareEPKc
	.loc 3 3601 38
	testl	%eax, %eax
	sete	%al
	.loc 3 3601 41
	addq	$32, %rsp
	popq	%rbp
.LCFI44:
	ret
.LFE2236:
	.seh_endproc
	.text
	.def	__tcf_0;	.scl	3;	.type	32;	.endef
	.seh_proc	__tcf_0
__tcf_0:
.LFB2395:
	.file 4 "D:/Env/msys64/mingw64/include/c++/12.1.0/iostream"
	.loc 4 74 25
	pushq	%rbp
	.seh_pushreg	%rbp
.LCFI45:
	movq	%rsp, %rbp
	.seh_setframe	%rbp, 0
.LCFI46:
	subq	$32, %rsp
	.seh_stackalloc	32
	.seh_endprologue
	.loc 4 74 25
	leaq	_ZStL8__ioinit(%rip), %rax
	movq	%rax, %rcx
	call	_ZNSt8ios_base4InitD1Ev
	nop
	addq	$32, %rsp
	popq	%rbp
.LCFI47:
	ret
.LFE2395:
	.seh_endproc
	.def	_Z41__static_initialization_and_destruction_0ii;	.scl	3;	.type	32;	.endef
	.seh_proc	_Z41__static_initialization_and_destruction_0ii
_Z41__static_initialization_and_destruction_0ii:
.LFB2394:
	.loc 2 288 1
	pushq	%rbp
	.seh_pushreg	%rbp
.LCFI48:
	movq	%rsp, %rbp
	.seh_setframe	%rbp, 0
.LCFI49:
	subq	$32, %rsp
	.seh_stackalloc	32
	.seh_endprologue
	movl	%ecx, 16(%rbp)
	movl	%edx, 24(%rbp)
	.loc 2 288 1
	cmpl	$1, 16(%rbp)
	jne	.L99
	.loc 2 288 1 is_stmt 0 discriminator 1
	cmpl	$65535, 24(%rbp)
	jne	.L99
	.loc 4 74 25 is_stmt 1
	leaq	_ZStL8__ioinit(%rip), %rax
	movq	%rax, %rcx
	call	_ZNSt8ios_base4InitC1Ev
	leaq	__tcf_0(%rip), %rax
	movq	%rax, %rcx
	call	atexit
.L99:
	.loc 2 288 1
	nop
	addq	$32, %rsp
	popq	%rbp
.LCFI50:
	ret
.LFE2394:
	.seh_endproc
	.def	_GLOBAL__sub_I_table;	.scl	3;	.type	32;	.endef
	.seh_proc	_GLOBAL__sub_I_table
_GLOBAL__sub_I_table:
.LFB2396:
	.loc 2 288 1
	pushq	%rbp
	.seh_pushreg	%rbp
.LCFI51:
	movq	%rsp, %rbp
	.seh_setframe	%rbp, 0
.LCFI52:
	subq	$32, %rsp
	.seh_stackalloc	32
	.seh_endprologue
	.loc 2 288 1
	movl	$65535, %edx
	movl	$1, %ecx
	call	_Z41__static_initialization_and_destruction_0ii
	nop
	addq	$32, %rsp
	popq	%rbp
.LCFI53:
	ret
.LFE2396:
	.seh_endproc
	.section	.ctors,"w"
	.align 8
	.quad	_GLOBAL__sub_I_table
	.section	.debug_frame,"dr"
.Lframe0:
	.long	.LECIE0-.LSCIE0
.LSCIE0:
	.long	0xffffffff
	.byte	0x3
	.ascii "\0"
	.uleb128 0x1
	.sleb128 -8
	.uleb128 0x10
	.byte	0xc
	.uleb128 0x7
	.uleb128 0x8
	.byte	0x90
	.uleb128 0x1
	.align 8
.LECIE0:
.LSFDE0:
	.long	.LEFDE0-.LASFDE0
.LASFDE0:
	.secrel32	.Lframe0
	.quad	.LFB223
	.quad	.LFE223-.LFB223
	.byte	0x4
	.long	.LCFI0-.LFB223
	.byte	0xe
	.uleb128 0x10
	.byte	0x86
	.uleb128 0x2
	.byte	0x4
	.long	.LCFI1-.LCFI0
	.byte	0xe
	.uleb128 0x18
	.byte	0x83
	.uleb128 0x3
	.byte	0x4
	.long	.LCFI2-.LCFI1
	.byte	0xe
	.uleb128 0x50
	.byte	0x4
	.long	.LCFI3-.LCFI2
	.byte	0xc
	.uleb128 0x6
	.uleb128 0x20
	.byte	0x4
	.long	.LCFI4-.LCFI3
	.byte	0xc3
	.byte	0x4
	.long	.LCFI5-.LCFI4
	.byte	0xc6
	.byte	0x12
	.uleb128 0x7
	.sleb128 5
	.align 8
.LEFDE0:
.LSFDE2:
	.long	.LEFDE2-.LASFDE2
.LASFDE2:
	.secrel32	.Lframe0
	.quad	.LFB1844
	.quad	.LFE1844-.LFB1844
	.byte	0x4
	.long	.LCFI6-.LFB1844
	.byte	0xe
	.uleb128 0x10
	.byte	0x86
	.uleb128 0x2
	.byte	0x4
	.long	.LCFI7-.LCFI6
	.byte	0xe
	.uleb128 0x18
	.byte	0x83
	.uleb128 0x3
	.byte	0x4
	.long	.LCFI8-.LCFI7
	.byte	0xe
	.uleb128 0x70
	.byte	0x4
	.long	.LCFI9-.LCFI8
	.byte	0xc
	.uleb128 0x6
	.uleb128 0x20
	.byte	0x4
	.long	.LCFI10-.LCFI9
	.byte	0xc3
	.byte	0x4
	.long	.LCFI11-.LCFI10
	.byte	0xc6
	.byte	0x12
	.uleb128 0x7
	.sleb128 9
	.align 8
.LEFDE2:
.LSFDE4:
	.long	.LEFDE4-.LASFDE4
.LASFDE4:
	.secrel32	.Lframe0
	.quad	.LFB1846
	.quad	.LFE1846-.LFB1846
	.byte	0x4
	.long	.LCFI12-.LFB1846
	.byte	0xe
	.uleb128 0x10
	.byte	0x86
	.uleb128 0x2
	.byte	0x4
	.long	.LCFI13-.LCFI12
	.byte	0xd
	.uleb128 0x6
	.byte	0x4
	.long	.LCFI14-.LCFI13
	.byte	0xc6
	.byte	0xc
	.uleb128 0x7
	.uleb128 0x8
	.align 8
.LEFDE4:
.LSFDE6:
	.long	.LEFDE6-.LASFDE6
.LASFDE6:
	.secrel32	.Lframe0
	.quad	.LFB1847
	.quad	.LFE1847-.LFB1847
	.byte	0x4
	.long	.LCFI15-.LFB1847
	.byte	0xe
	.uleb128 0x10
	.byte	0x86
	.uleb128 0x2
	.byte	0x4
	.long	.LCFI16-.LCFI15
	.byte	0xd
	.uleb128 0x6
	.byte	0x4
	.long	.LCFI17-.LCFI16
	.byte	0xc6
	.byte	0xc
	.uleb128 0x7
	.uleb128 0x8
	.align 8
.LEFDE6:
.LSFDE8:
	.long	.LEFDE8-.LASFDE8
.LASFDE8:
	.secrel32	.Lframe0
	.quad	.LFB1848
	.quad	.LFE1848-.LFB1848
	.byte	0x4
	.long	.LCFI18-.LFB1848
	.byte	0xe
	.uleb128 0x10
	.byte	0x86
	.uleb128 0x2
	.byte	0x4
	.long	.LCFI19-.LCFI18
	.byte	0xd
	.uleb128 0x6
	.byte	0x4
	.long	.LCFI20-.LCFI19
	.byte	0xc6
	.byte	0xc
	.uleb128 0x7
	.uleb128 0x8
	.align 8
.LEFDE8:
.LSFDE10:
	.long	.LEFDE10-.LASFDE10
.LASFDE10:
	.secrel32	.Lframe0
	.quad	.LFB1849
	.quad	.LFE1849-.LFB1849
	.byte	0x4
	.long	.LCFI21-.LFB1849
	.byte	0xe
	.uleb128 0x10
	.byte	0x86
	.uleb128 0x2
	.byte	0x4
	.long	.LCFI22-.LCFI21
	.byte	0xd
	.uleb128 0x6
	.byte	0x4
	.long	.LCFI23-.LCFI22
	.byte	0xc6
	.byte	0xc
	.uleb128 0x7
	.uleb128 0x8
	.align 8
.LEFDE10:
.LSFDE12:
	.long	.LEFDE12-.LASFDE12
.LASFDE12:
	.secrel32	.Lframe0
	.quad	.LFB1850
	.quad	.LFE1850-.LFB1850
	.byte	0x4
	.long	.LCFI24-.LFB1850
	.byte	0xe
	.uleb128 0x10
	.byte	0x86
	.uleb128 0x2
	.byte	0x4
	.long	.LCFI25-.LCFI24
	.byte	0xd
	.uleb128 0x6
	.byte	0x4
	.long	.LCFI26-.LCFI25
	.byte	0xc6
	.byte	0xc
	.uleb128 0x7
	.uleb128 0x8
	.align 8
.LEFDE12:
.LSFDE14:
	.long	.LEFDE14-.LASFDE14
.LASFDE14:
	.secrel32	.Lframe0
	.quad	.LFB1851
	.quad	.LFE1851-.LFB1851
	.byte	0x4
	.long	.LCFI27-.LFB1851
	.byte	0xe
	.uleb128 0x10
	.byte	0x86
	.uleb128 0x2
	.byte	0x4
	.long	.LCFI28-.LCFI27
	.byte	0xe
	.uleb128 0x18
	.byte	0x83
	.uleb128 0x3
	.byte	0x4
	.long	.LCFI29-.LCFI28
	.byte	0xe
	.uleb128 0x90
	.byte	0x4
	.long	.LCFI30-.LCFI29
	.byte	0xc
	.uleb128 0x6
	.uleb128 0x20
	.byte	0x4
	.long	.LCFI31-.LCFI30
	.byte	0xc3
	.byte	0x4
	.long	.LCFI32-.LCFI31
	.byte	0xc6
	.byte	0x12
	.uleb128 0x7
	.sleb128 13
	.align 8
.LEFDE14:
.LSFDE16:
	.long	.LEFDE16-.LASFDE16
.LASFDE16:
	.secrel32	.Lframe0
	.quad	.LFB1852
	.quad	.LFE1852-.LFB1852
	.byte	0x4
	.long	.LCFI33-.LFB1852
	.byte	0xe
	.uleb128 0x10
	.byte	0x86
	.uleb128 0x2
	.byte	0x4
	.long	.LCFI34-.LCFI33
	.byte	0xd
	.uleb128 0x6
	.byte	0x4
	.long	.LCFI35-.LCFI34
	.byte	0xc6
	.byte	0xc
	.uleb128 0x7
	.uleb128 0x8
	.align 8
.LEFDE16:
.LSFDE18:
	.long	.LEFDE18-.LASFDE18
.LASFDE18:
	.secrel32	.Lframe0
	.quad	.LFB1853
	.quad	.LFE1853-.LFB1853
	.byte	0x4
	.long	.LCFI36-.LFB1853
	.byte	0xe
	.uleb128 0x10
	.byte	0x86
	.uleb128 0x2
	.byte	0x4
	.long	.LCFI37-.LCFI36
	.byte	0xd
	.uleb128 0x6
	.byte	0x4
	.long	.LCFI38-.LCFI37
	.byte	0xc6
	.byte	0xc
	.uleb128 0x7
	.uleb128 0x8
	.align 8
.LEFDE18:
.LSFDE20:
	.long	.LEFDE20-.LASFDE20
.LASFDE20:
	.secrel32	.Lframe0
	.quad	.LFB2127
	.quad	.LFE2127-.LFB2127
	.byte	0x4
	.long	.LCFI39-.LFB2127
	.byte	0xe
	.uleb128 0x10
	.byte	0x86
	.uleb128 0x2
	.byte	0x4
	.long	.LCFI40-.LCFI39
	.byte	0xd
	.uleb128 0x6
	.byte	0x4
	.long	.LCFI41-.LCFI40
	.byte	0xc6
	.byte	0xc
	.uleb128 0x7
	.uleb128 0x8
	.align 8
.LEFDE20:
.LSFDE22:
	.long	.LEFDE22-.LASFDE22
.LASFDE22:
	.secrel32	.Lframe0
	.quad	.LFB2236
	.quad	.LFE2236-.LFB2236
	.byte	0x4
	.long	.LCFI42-.LFB2236
	.byte	0xe
	.uleb128 0x10
	.byte	0x86
	.uleb128 0x2
	.byte	0x4
	.long	.LCFI43-.LCFI42
	.byte	0xd
	.uleb128 0x6
	.byte	0x4
	.long	.LCFI44-.LCFI43
	.byte	0xc6
	.byte	0xc
	.uleb128 0x7
	.uleb128 0x8
	.align 8
.LEFDE22:
.LSFDE24:
	.long	.LEFDE24-.LASFDE24
.LASFDE24:
	.secrel32	.Lframe0
	.quad	.LFB2395
	.quad	.LFE2395-.LFB2395
	.byte	0x4
	.long	.LCFI45-.LFB2395
	.byte	0xe
	.uleb128 0x10
	.byte	0x86
	.uleb128 0x2
	.byte	0x4
	.long	.LCFI46-.LCFI45
	.byte	0xd
	.uleb128 0x6
	.byte	0x4
	.long	.LCFI47-.LCFI46
	.byte	0xc6
	.byte	0xc
	.uleb128 0x7
	.uleb128 0x8
	.align 8
.LEFDE24:
.LSFDE26:
	.long	.LEFDE26-.LASFDE26
.LASFDE26:
	.secrel32	.Lframe0
	.quad	.LFB2394
	.quad	.LFE2394-.LFB2394
	.byte	0x4
	.long	.LCFI48-.LFB2394
	.byte	0xe
	.uleb128 0x10
	.byte	0x86
	.uleb128 0x2
	.byte	0x4
	.long	.LCFI49-.LCFI48
	.byte	0xd
	.uleb128 0x6
	.byte	0x4
	.long	.LCFI50-.LCFI49
	.byte	0xc6
	.byte	0xc
	.uleb128 0x7
	.uleb128 0x8
	.align 8
.LEFDE26:
.LSFDE28:
	.long	.LEFDE28-.LASFDE28
.LASFDE28:
	.secrel32	.Lframe0
	.quad	.LFB2396
	.quad	.LFE2396-.LFB2396
	.byte	0x4
	.long	.LCFI51-.LFB2396
	.byte	0xe
	.uleb128 0x10
	.byte	0x86
	.uleb128 0x2
	.byte	0x4
	.long	.LCFI52-.LCFI51
	.byte	0xd
	.uleb128 0x6
	.byte	0x4
	.long	.LCFI53-.LCFI52
	.byte	0xc6
	.byte	0xc
	.uleb128 0x7
	.uleb128 0x8
	.align 8
.LEFDE28:
	.text
.Letext0:
	.file 5 "D:/Env/msys64/mingw64/include/vadefs.h"
	.file 6 "D:/Env/msys64/mingw64/include/corecrt.h"
	.file 7 "D:/Env/msys64/mingw64/include/locale.h"
	.file 8 "D:/Env/msys64/mingw64/include/wchar.h"
	.file 9 "D:/Env/msys64/mingw64/include/c++/12.1.0/cwchar"
	.file 10 "D:/Env/msys64/mingw64/include/c++/12.1.0/x86_64-w64-mingw32/bits/c++config.h"
	.file 11 "D:/Env/msys64/mingw64/include/c++/12.1.0/type_traits"
	.file 12 "D:/Env/msys64/mingw64/include/c++/12.1.0/bits/exception_ptr.h"
	.file 13 "D:/Env/msys64/mingw64/include/c++/12.1.0/bits/char_traits.h"
	.file 14 "D:/Env/msys64/mingw64/include/c++/12.1.0/cstdint"
	.file 15 "D:/Env/msys64/mingw64/include/c++/12.1.0/clocale"
	.file 16 "D:/Env/msys64/mingw64/include/c++/12.1.0/bits/new_allocator.h"
	.file 17 "D:/Env/msys64/mingw64/include/c++/12.1.0/bits/allocator.h"
	.file 18 "D:/Env/msys64/mingw64/include/c++/12.1.0/debug/debug.h"
	.file 19 "D:/Env/msys64/mingw64/include/c++/12.1.0/string_view"
	.file 20 "D:/Env/msys64/mingw64/include/c++/12.1.0/cstdlib"
	.file 21 "D:/Env/msys64/mingw64/include/c++/12.1.0/cstdio"
	.file 22 "D:/Env/msys64/mingw64/include/c++/12.1.0/bits/alloc_traits.h"
	.file 23 "D:/Env/msys64/mingw64/include/c++/12.1.0/initializer_list"
	.file 24 "D:/Env/msys64/mingw64/include/c++/12.1.0/bits/stringfwd.h"
	.file 25 "D:/Env/msys64/mingw64/include/c++/12.1.0/bits/ios_base.h"
	.file 26 "D:/Env/msys64/mingw64/include/c++/12.1.0/cwctype"
	.file 27 "D:/Env/msys64/mingw64/include/c++/12.1.0/bits/ostream.tcc"
	.file 28 "D:/Env/msys64/mingw64/include/c++/12.1.0/ostream"
	.file 29 "D:/Env/msys64/mingw64/include/c++/12.1.0/istream"
	.file 30 "D:/Env/msys64/mingw64/include/c++/12.1.0/iosfwd"
	.file 31 "D:/Env/msys64/mingw64/include/c++/12.1.0/bits/std_abs.h"
	.file 32 "D:/Env/msys64/mingw64/include/c++/12.1.0/bits/stl_iterator_base_types.h"
	.file 33 "D:/Env/msys64/mingw64/include/c++/12.1.0/bits/move.h"
	.file 34 "D:/Env/msys64/mingw64/include/swprintf.inl"
	.file 35 "D:/Env/msys64/mingw64/include/c++/12.1.0/bits/predefined_ops.h"
	.file 36 "D:/Env/msys64/mingw64/include/c++/12.1.0/ext/alloc_traits.h"
	.file 37 "D:/Env/msys64/mingw64/include/c++/12.1.0/bits/stl_iterator.h"
	.file 38 "D:/Env/msys64/mingw64/include/stdint.h"
	.file 39 "D:/Env/msys64/mingw64/include/stdlib.h"
	.file 40 "D:/Env/msys64/mingw64/include/process.h"
	.file 41 "D:/Env/msys64/mingw64/include/wctype.h"
	.file 42 "D:/Env/msys64/mingw64/include/c++/12.1.0/stdlib.h"
	.file 43 "D:/Env/msys64/mingw64/include/c++/12.1.0/new"
	.file 44 "D:/Env/msys64/mingw64/include/ctype.h"
	.file 45 "D:/Env/msys64/mingw64/include/c++/12.1.0/system_error"
	.section	.rdata$.refptr._ZSt4endlIcSt11char_traitsIcEERSt13basic_ostreamIT_T0_ES6_, "dr"
	.globl	.refptr._ZSt4endlIcSt11char_traitsIcEERSt13basic_ostreamIT_T0_ES6_
	.linkonce	discard
.refptr._ZSt4endlIcSt11char_traitsIcEERSt13basic_ostreamIT_T0_ES6_:
	.quad	_ZSt4endlIcSt11char_traitsIcEERSt13basic_ostreamIT_T0_ES6_
	.section	.rdata$.refptr._ZSt3cin, "dr"
	.globl	.refptr._ZSt3cin
	.linkonce	discard
.refptr._ZSt3cin:
	.quad	_ZSt3cin
	.section	.rdata$.refptr._ZSt4cout, "dr"
	.globl	.refptr._ZSt4cout
	.linkonce	discard
.refptr._ZSt4cout:
	.quad	_ZSt4cout
