	.file	"scienCalcu.abandoned.cpp"
	.text
.Ltext0:
	.file 0 "E://Works//ElectronicAsso//2022//Oct//6th" "E:/Works/ElectronicAsso/2022/Oct/6th/scienCalcu.abandoned.cpp"
.lcomm _ZStL8__ioinit,1,1
	.def	__main;	.scl	2;	.type	32;	.endef
	.section .rdata,"dr"
.LC0:
	.ascii "chcp 65001\0"
.LC1:
	.ascii "pause\0"
	.text
	.globl	main
	.def	main;	.scl	2;	.type	32;	.endef
	.seh_proc	main
main:
.LFB2418:
	.file 1 "E:/Works/ElectronicAsso/2022/Oct/6th/scienCalcu.abandoned.cpp"
	.loc 1 62 1
	pushq	%rbp
	.seh_pushreg	%rbp
.LCFI0:
	movq	%rsp, %rbp
	.seh_setframe	%rbp, 0
.LCFI1:
	subq	$32, %rsp
	.seh_stackalloc	32
	.seh_endprologue
	movl	%ecx, 16(%rbp)
	movq	%rdx, 24(%rbp)
	.loc 1 62 1
	call	__main
	.loc 1 63 11
	leaq	.LC0(%rip), %rax
	movq	%rax, %rcx
	call	system
	.loc 1 64 8
	call	_Z3clsv
	.loc 1 65 10
	call	_Z5startv
	.loc 1 66 11
	leaq	.LC1(%rip), %rax
	movq	%rax, %rcx
	call	system
	.loc 1 67 12
	movl	$0, %eax
	.loc 1 68 1
	addq	$32, %rsp
	popq	%rbp
.LCFI2:
	ret
.LFE2418:
	.seh_endproc
	.globl	_Z5startv
	.def	_Z5startv;	.scl	2;	.type	32;	.endef
	.seh_proc	_Z5startv
_Z5startv:
.LFB2419:
	.loc 1 71 1
	pushq	%rbp
	.seh_pushreg	%rbp
.LCFI3:
	movq	%rsp, %rbp
	.seh_setframe	%rbp, 0
.LCFI4:
	subq	$48, %rsp
	.seh_stackalloc	48
	.seh_endprologue
	.loc 1 74 22
	call	_Z8selectorv
	movb	%al, -1(%rbp)
	.loc 1 75 13
	movsbl	-1(%rbp), %eax
	.loc 1 75 5
	cmpl	$113, %eax
	je	.L10
	cmpl	$113, %eax
	jg	.L5
	cmpl	$51, %eax
	je	.L6
	cmpl	$51, %eax
	jg	.L5
	cmpl	$49, %eax
	je	.L7
	cmpl	$50, %eax
	je	.L8
	jmp	.L5
.L7:
	.loc 1 78 15
	call	_Z6normalv
	.loc 1 79 9
	jmp	.L9
.L8:
	.loc 1 81 19
	call	_Z10scientificv
	.loc 1 82 9
	jmp	.L9
.L6:
	.loc 1 84 19
	call	_Z10programmerv
	.loc 1 85 9
	jmp	.L9
.L5:
	.loc 1 89 22
	movsbl	-1(%rbp), %eax
	movl	%eax, %ecx
	call	_Z13unknownOptionc
	.loc 1 91 1
	jmp	.L11
.L10:
	.loc 1 87 9
	nop
.L9:
.L11:
	.loc 1 91 1
	nop
	addq	$48, %rsp
	popq	%rbp
.LCFI5:
	ret
.LFE2419:
	.seh_endproc
	.section .rdata,"dr"
.LC2:
	.ascii "pls select the mode: \12\0"
	.align 8
.LC3:
	.ascii "1. normal \12"
	.ascii "2. scientific \12"
	.ascii "3. programmer \12q. quit\0"
	.text
	.globl	_Z8selectorv
	.def	_Z8selectorv;	.scl	2;	.type	32;	.endef
	.seh_proc	_Z8selectorv
_Z8selectorv:
.LFB2420:
	.loc 1 93 1
	pushq	%rbp
	.seh_pushreg	%rbp
.LCFI6:
	movq	%rsp, %rbp
	.seh_setframe	%rbp, 0
.LCFI7:
	subq	$48, %rsp
	.seh_stackalloc	48
	.seh_endprologue
	.loc 1 96 13
	leaq	.LC2(%rip), %rax
	movq	%rax, %rdx
	movq	.refptr._ZSt4cout(%rip), %rax
	movq	%rax, %rcx
	call	_ZStlsISt11char_traitsIcEERSt13basic_ostreamIcT_ES5_PKc
	movq	%rax, %rcx
	leaq	.LC3(%rip), %rax
	movq	%rax, %rdx
	call	_ZStlsISt11char_traitsIcEERSt13basic_ostreamIcT_ES5_PKc
	movq	%rax, %rcx
	.loc 1 96 70
	movq	.refptr._ZSt4endlIcSt11char_traitsIcEERSt13basic_ostreamIT_T0_ES6_(%rip), %rax
	movq	%rax, %rdx
	call	_ZNSolsEPFRSoS_E
	.loc 1 97 12
	leaq	-1(%rbp), %rax
	movq	%rax, %rdx
	movq	.refptr._ZSt3cin(%rip), %rax
	movq	%rax, %rcx
	call	_ZStrsIcSt11char_traitsIcEERSt13basic_istreamIT_T0_ES6_RS3_
	.loc 1 98 12
	movzbl	-1(%rbp), %eax
	.loc 1 99 1
	addq	$48, %rsp
	popq	%rbp
.LCFI8:
	ret
.LFE2420:
	.seh_endproc
	.section .rdata,"dr"
.LC4:
	.ascii "Unknown option: \0"
	.text
	.globl	_Z13unknownOptionc
	.def	_Z13unknownOptionc;	.scl	2;	.type	32;	.endef
	.seh_proc	_Z13unknownOptionc
_Z13unknownOptionc:
.LFB2421:
	.loc 1 101 1
	pushq	%rbp
	.seh_pushreg	%rbp
.LCFI9:
	movq	%rsp, %rbp
	.seh_setframe	%rbp, 0
.LCFI10:
	subq	$32, %rsp
	.seh_stackalloc	32
	.seh_endprologue
	movl	%ecx, %eax
	movb	%al, 16(%rbp)
	.loc 1 102 35
	leaq	.LC4(%rip), %rax
	movq	%rax, %rdx
	movq	.refptr._ZSt4cout(%rip), %rax
	movq	%rax, %rcx
	call	_ZStlsISt11char_traitsIcEERSt13basic_ostreamIcT_ES5_PKc
	movq	%rax, %rcx
	movsbl	16(%rbp), %eax
	movl	%eax, %edx
	call	_ZStlsISt11char_traitsIcEERSt13basic_ostreamIcT_ES5_c
	movq	%rax, %rcx
	.loc 1 102 45
	movq	.refptr._ZSt4endlIcSt11char_traitsIcEERSt13basic_ostreamIT_T0_ES6_(%rip), %rax
	movq	%rax, %rdx
	call	_ZNSolsEPFRSoS_E
	.loc 1 103 1
	nop
	addq	$32, %rsp
	popq	%rbp
.LCFI11:
	ret
.LFE2421:
	.seh_endproc
	.section .rdata,"dr"
	.align 8
.LC5:
	.ascii "pls select the mode: \12"
	.ascii "1. add; 2. subtract; \12\0"
	.align 8
.LC6:
	.ascii "3. multiplication; 4. division; \12b. back; q. exit\0"
	.text
	.globl	_Z9normalSelv
	.def	_Z9normalSelv;	.scl	2;	.type	32;	.endef
	.seh_proc	_Z9normalSelv
_Z9normalSelv:
.LFB2422:
	.loc 1 105 1
	pushq	%rbp
	.seh_pushreg	%rbp
.LCFI12:
	movq	%rsp, %rbp
	.seh_setframe	%rbp, 0
.LCFI13:
	subq	$32, %rsp
	.seh_stackalloc	32
	.seh_endprologue
	.loc 1 107 13
	leaq	.LC5(%rip), %rax
	movq	%rax, %rdx
	movq	.refptr._ZSt4cout(%rip), %rax
	movq	%rax, %rcx
	call	_ZStlsISt11char_traitsIcEERSt13basic_ostreamIcT_ES5_PKc
	movq	%rax, %rcx
	leaq	.LC6(%rip), %rax
	movq	%rax, %rdx
	call	_ZStlsISt11char_traitsIcEERSt13basic_ostreamIcT_ES5_PKc
	movq	%rax, %rcx
	.loc 1 107 69
	movq	.refptr._ZSt4endlIcSt11char_traitsIcEERSt13basic_ostreamIT_T0_ES6_(%rip), %rax
	movq	%rax, %rdx
	call	_ZNSolsEPFRSoS_E
	.loc 1 108 1
	nop
	addq	$32, %rsp
	popq	%rbp
.LCFI14:
	ret
.LFE2422:
	.seh_endproc
	.globl	_Z6normalv
	.def	_Z6normalv;	.scl	2;	.type	32;	.endef
	.seh_proc	_Z6normalv
_Z6normalv:
.LFB2423:
	.loc 1 110 1
	pushq	%rbp
	.seh_pushreg	%rbp
.LCFI15:
	movq	%rsp, %rbp
	.seh_setframe	%rbp, 0
.LCFI16:
	subq	$48, %rsp
	.seh_stackalloc	48
	.seh_endprologue
	.loc 1 112 14
	call	_Z9normalSelv
	.loc 1 113 12
	leaq	-1(%rbp), %rax
	movq	%rax, %rdx
	movq	.refptr._ZSt3cin(%rip), %rax
	movq	%rax, %rcx
	call	_ZStrsIcSt11char_traitsIcEERSt13basic_istreamIT_T0_ES6_RS3_
	.loc 1 114 13
	movzbl	-1(%rbp), %eax
	movsbl	%al, %eax
	.loc 1 114 5
	cmpl	$98, %eax
	je	.L17
	cmpl	$98, %eax
	jg	.L18
	cmpl	$52, %eax
	je	.L19
	cmpl	$52, %eax
	jg	.L18
	cmpl	$51, %eax
	je	.L20
	cmpl	$51, %eax
	jg	.L18
	cmpl	$49, %eax
	je	.L21
	cmpl	$50, %eax
	je	.L22
	jmp	.L18
.L21:
	.loc 1 117 14
	call	_Z5n_addv
	.loc 1 118 9
	jmp	.L23
.L22:
	.loc 1 120 19
	call	_Z10n_subtractv
	.loc 1 121 9
	jmp	.L23
.L20:
	.loc 1 123 25
	call	_Z16n_multiplicationv
	.loc 1 124 9
	jmp	.L23
.L19:
	.loc 1 126 19
	call	_Z10n_divisionv
	.loc 1 127 9
	jmp	.L23
.L17:
	.loc 1 129 14
	call	_Z5startv
	.loc 1 130 9
	jmp	.L23
.L18:
	.loc 1 132 22
	movzbl	-1(%rbp), %eax
	movsbl	%al, %eax
	movl	%eax, %ecx
	call	_Z13unknownOptionc
.L23:
	.loc 1 134 13
	movq	.refptr._ZSt4endlIcSt11char_traitsIcEERSt13basic_ostreamIT_T0_ES6_(%rip), %rax
	movq	%rax, %rdx
	movq	.refptr._ZSt4cout(%rip), %rax
	movq	%rax, %rcx
	call	_ZNSolsEPFRSoS_E
	.loc 1 135 10
	call	_Z5startv
	.loc 1 136 1
	nop
	addq	$48, %rsp
	popq	%rbp
.LCFI17:
	ret
.LFE2423:
	.seh_endproc
	.section .rdata,"dr"
	.align 8
.LC7:
	.ascii "1. sin; 2. cos; 3. tan; \12"
	.ascii "4. power; 5. lg; \12"
	.ascii "6. !; \12\0"
	.align 8
.LC8:
	.ascii "7. ^-1; 8. ^2; 9. ^3; \12x. variance of 5 nums; \12\0"
.LC9:
	.ascii "b. back; q. exit\0"
	.text
	.globl	_Z13scientificSelv
	.def	_Z13scientificSelv;	.scl	2;	.type	32;	.endef
	.seh_proc	_Z13scientificSelv
_Z13scientificSelv:
.LFB2424:
	.loc 1 138 1
	pushq	%rbp
	.seh_pushreg	%rbp
.LCFI18:
	movq	%rsp, %rbp
	.seh_setframe	%rbp, 0
.LCFI19:
	subq	$32, %rsp
	.seh_stackalloc	32
	.seh_endprologue
	.loc 1 142 13
	leaq	.LC2(%rip), %rax
	movq	%rax, %rdx
	movq	.refptr._ZSt4cout(%rip), %rax
	movq	%rax, %rcx
	call	_ZStlsISt11char_traitsIcEERSt13basic_ostreamIcT_ES5_PKc
	movq	%rax, %rcx
	leaq	.LC7(%rip), %rax
	movq	%rax, %rdx
	call	_ZStlsISt11char_traitsIcEERSt13basic_ostreamIcT_ES5_PKc
	movq	%rax, %rcx
	leaq	.LC8(%rip), %rax
	movq	%rax, %rdx
	call	_ZStlsISt11char_traitsIcEERSt13basic_ostreamIcT_ES5_PKc
	movq	%rax, %rcx
	leaq	.LC9(%rip), %rax
	movq	%rax, %rdx
	call	_ZStlsISt11char_traitsIcEERSt13basic_ostreamIcT_ES5_PKc
	movq	%rax, %rcx
	.loc 1 142 35
	movq	.refptr._ZSt4endlIcSt11char_traitsIcEERSt13basic_ostreamIT_T0_ES6_(%rip), %rax
	movq	%rax, %rdx
	call	_ZNSolsEPFRSoS_E
	.loc 1 143 1
	nop
	addq	$32, %rsp
	popq	%rbp
.LCFI20:
	ret
.LFE2424:
	.seh_endproc
	.globl	_Z10scientificv
	.def	_Z10scientificv;	.scl	2;	.type	32;	.endef
	.seh_proc	_Z10scientificv
_Z10scientificv:
.LFB2425:
	.loc 1 145 1
	pushq	%rbp
	.seh_pushreg	%rbp
.LCFI21:
	movq	%rsp, %rbp
	.seh_setframe	%rbp, 0
.LCFI22:
	subq	$48, %rsp
	.seh_stackalloc	48
	.seh_endprologue
	.loc 1 147 18
	call	_Z13scientificSelv
	.loc 1 148 12
	leaq	-1(%rbp), %rax
	movq	%rax, %rdx
	movq	.refptr._ZSt3cin(%rip), %rax
	movq	%rax, %rcx
	call	_ZStrsIcSt11char_traitsIcEERSt13basic_istreamIT_T0_ES6_RS3_
	.loc 1 150 13
	movzbl	-1(%rbp), %eax
	movsbl	%al, %eax
	.loc 1 150 5
	subl	$49, %eax
	cmpl	$71, %eax
	ja	.L26
	movl	%eax, %eax
	leaq	0(,%rax,4), %rdx
	leaq	.L28(%rip), %rax
	movl	(%rdx,%rax), %eax
	cltq
	leaq	.L28(%rip), %rdx
	addq	%rdx, %rax
	jmp	*%rax
	.section .rdata,"dr"
	.align 4
.L28:
	.long	.L38-.L28
	.long	.L37-.L28
	.long	.L36-.L28
	.long	.L35-.L28
	.long	.L34-.L28
	.long	.L33-.L28
	.long	.L32-.L28
	.long	.L31-.L28
	.long	.L30-.L28
	.long	.L26-.L28
	.long	.L26-.L28
	.long	.L26-.L28
	.long	.L26-.L28
	.long	.L26-.L28
	.long	.L26-.L28
	.long	.L26-.L28
	.long	.L26-.L28
	.long	.L26-.L28
	.long	.L26-.L28
	.long	.L26-.L28
	.long	.L26-.L28
	.long	.L26-.L28
	.long	.L26-.L28
	.long	.L26-.L28
	.long	.L26-.L28
	.long	.L26-.L28
	.long	.L26-.L28
	.long	.L26-.L28
	.long	.L26-.L28
	.long	.L26-.L28
	.long	.L26-.L28
	.long	.L26-.L28
	.long	.L26-.L28
	.long	.L26-.L28
	.long	.L26-.L28
	.long	.L26-.L28
	.long	.L26-.L28
	.long	.L26-.L28
	.long	.L26-.L28
	.long	.L26-.L28
	.long	.L26-.L28
	.long	.L26-.L28
	.long	.L26-.L28
	.long	.L26-.L28
	.long	.L26-.L28
	.long	.L26-.L28
	.long	.L26-.L28
	.long	.L26-.L28
	.long	.L26-.L28
	.long	.L29-.L28
	.long	.L26-.L28
	.long	.L26-.L28
	.long	.L26-.L28
	.long	.L26-.L28
	.long	.L26-.L28
	.long	.L26-.L28
	.long	.L26-.L28
	.long	.L26-.L28
	.long	.L26-.L28
	.long	.L26-.L28
	.long	.L26-.L28
	.long	.L26-.L28
	.long	.L26-.L28
	.long	.L26-.L28
	.long	.L26-.L28
	.long	.L26-.L28
	.long	.L26-.L28
	.long	.L26-.L28
	.long	.L26-.L28
	.long	.L26-.L28
	.long	.L26-.L28
	.long	.L27-.L28
	.text
.L38:
	.loc 1 153 14
	call	_Z5s_sinv
	.loc 1 154 9
	jmp	.L39
.L37:
	.loc 1 156 14
	call	_Z5s_cosv
	.loc 1 157 9
	jmp	.L39
.L36:
	.loc 1 159 14
	call	_Z5s_tanv
	.loc 1 160 9
	jmp	.L39
.L35:
	.loc 1 162 14
	call	_Z5s_powv
	.loc 1 163 9
	jmp	.L39
.L34:
	.loc 1 165 13
	call	_Z4s_lgv
	.loc 1 166 9
	jmp	.L39
.L33:
	.loc 1 168 20
	call	_Z11s_factorialv
	.loc 1 169 9
	jmp	.L39
.L32:
	.loc 1 171 18
	call	_Z9s_inversev
	.loc 1 172 9
	jmp	.L39
.L31:
	.loc 1 174 17
	call	_Z8s_squarev
	.loc 1 175 9
	jmp	.L39
.L30:
	.loc 1 177 16
	call	_Z7s_cubicv
	.loc 1 178 9
	jmp	.L39
.L27:
	.loc 1 180 19
	call	_Z10s_variancev
	.loc 1 181 9
	jmp	.L39
.L29:
	.loc 1 183 14
	call	_Z5startv
	.loc 1 184 9
	jmp	.L39
.L26:
	.loc 1 186 22
	movzbl	-1(%rbp), %eax
	movsbl	%al, %eax
	movl	%eax, %ecx
	call	_Z13unknownOptionc
	.loc 1 187 9
	nop
.L39:
	.loc 1 189 13
	movq	.refptr._ZSt4endlIcSt11char_traitsIcEERSt13basic_ostreamIT_T0_ES6_(%rip), %rax
	movq	%rax, %rdx
	movq	.refptr._ZSt4cout(%rip), %rax
	movq	%rax, %rcx
	call	_ZNSolsEPFRSoS_E
	.loc 1 190 10
	call	_Z5startv
	.loc 1 191 1
	nop
	addq	$48, %rsp
	popq	%rbp
.LCFI23:
	ret
.LFE2425:
	.seh_endproc
	.section .rdata,"dr"
	.align 8
.LC10:
	.ascii "1. decimal; 2. binary; 3. octal \12\0"
	.text
	.globl	_Z13programmerSelv
	.def	_Z13programmerSelv;	.scl	2;	.type	32;	.endef
	.seh_proc	_Z13programmerSelv
_Z13programmerSelv:
.LFB2426:
	.loc 1 193 1
	pushq	%rbp
	.seh_pushreg	%rbp
.LCFI24:
	movq	%rsp, %rbp
	.seh_setframe	%rbp, 0
.LCFI25:
	subq	$32, %rsp
	.seh_stackalloc	32
	.seh_endprologue
	.loc 1 196 13
	leaq	.LC2(%rip), %rax
	movq	%rax, %rdx
	movq	.refptr._ZSt4cout(%rip), %rax
	movq	%rax, %rcx
	call	_ZStlsISt11char_traitsIcEERSt13basic_ostreamIcT_ES5_PKc
	movq	%rax, %rcx
	leaq	.LC10(%rip), %rax
	movq	%rax, %rdx
	call	_ZStlsISt11char_traitsIcEERSt13basic_ostreamIcT_ES5_PKc
	movq	%rax, %rcx
	leaq	.LC9(%rip), %rax
	movq	%rax, %rdx
	call	_ZStlsISt11char_traitsIcEERSt13basic_ostreamIcT_ES5_PKc
	movq	%rax, %rcx
	.loc 1 196 35
	movq	.refptr._ZSt4endlIcSt11char_traitsIcEERSt13basic_ostreamIT_T0_ES6_(%rip), %rax
	movq	%rax, %rdx
	call	_ZNSolsEPFRSoS_E
	.loc 1 197 1
	nop
	addq	$32, %rsp
	popq	%rbp
.LCFI26:
	ret
.LFE2426:
	.seh_endproc
	.globl	_Z10programmerv
	.def	_Z10programmerv;	.scl	2;	.type	32;	.endef
	.seh_proc	_Z10programmerv
_Z10programmerv:
.LFB2427:
	.loc 1 199 1
	pushq	%rbp
	.seh_pushreg	%rbp
.LCFI27:
	movq	%rsp, %rbp
	.seh_setframe	%rbp, 0
.LCFI28:
	subq	$48, %rsp
	.seh_stackalloc	48
	.seh_endprologue
	.loc 1 201 18
	call	_Z13programmerSelv
	.loc 1 202 12
	leaq	-1(%rbp), %rax
	movq	%rax, %rdx
	movq	.refptr._ZSt3cin(%rip), %rax
	movq	%rax, %rcx
	call	_ZStrsIcSt11char_traitsIcEERSt13basic_istreamIT_T0_ES6_RS3_
	.loc 1 204 13
	movzbl	-1(%rbp), %eax
	movsbl	%al, %eax
	.loc 1 204 5
	cmpl	$98, %eax
	je	.L42
	cmpl	$98, %eax
	jg	.L43
	cmpl	$51, %eax
	je	.L44
	cmpl	$51, %eax
	jg	.L43
	cmpl	$49, %eax
	je	.L45
	cmpl	$50, %eax
	je	.L46
	jmp	.L43
.L45:
	.loc 1 207 14
	call	_Z5p_decv
	.loc 1 208 9
	jmp	.L47
.L46:
	.loc 1 210 14
	call	_Z5p_binv
	.loc 1 211 9
	jmp	.L47
.L44:
	.loc 1 213 14
	call	_Z5p_octv
	.loc 1 214 9
	jmp	.L47
.L42:
	.loc 1 216 14
	call	_Z5startv
	.loc 1 217 9
	jmp	.L47
.L43:
	.loc 1 219 22
	movzbl	-1(%rbp), %eax
	movsbl	%al, %eax
	movl	%eax, %ecx
	call	_Z13unknownOptionc
.L47:
	.loc 1 221 13
	movq	.refptr._ZSt4endlIcSt11char_traitsIcEERSt13basic_ostreamIT_T0_ES6_(%rip), %rax
	movq	%rax, %rdx
	movq	.refptr._ZSt4cout(%rip), %rax
	movq	%rax, %rcx
	call	_ZNSolsEPFRSoS_E
	.loc 1 222 10
	call	_Z5startv
	.loc 1 223 1
	nop
	addq	$48, %rsp
	popq	%rbp
.LCFI29:
	ret
.LFE2427:
	.seh_endproc
	.section .rdata,"dr"
.LC11:
	.ascii "clear\0"
	.text
	.globl	_Z3clsv
	.def	_Z3clsv;	.scl	2;	.type	32;	.endef
	.seh_proc	_Z3clsv
_Z3clsv:
.LFB2428:
	.loc 1 225 1
	pushq	%rbp
	.seh_pushreg	%rbp
.LCFI30:
	movq	%rsp, %rbp
	.seh_setframe	%rbp, 0
.LCFI31:
	subq	$32, %rsp
	.seh_stackalloc	32
	.seh_endprologue
	.loc 1 226 11
	leaq	.LC11(%rip), %rax
	movq	%rax, %rcx
	call	system
	.loc 1 227 1
	nop
	addq	$32, %rsp
	popq	%rbp
.LCFI32:
	ret
.LFE2428:
	.seh_endproc
	.globl	_Z5sleepi
	.def	_Z5sleepi;	.scl	2;	.type	32;	.endef
	.seh_proc	_Z5sleepi
_Z5sleepi:
.LFB2429:
	.loc 1 229 1
	pushq	%rbp
	.seh_pushreg	%rbp
.LCFI33:
	movq	%rsp, %rbp
	.seh_setframe	%rbp, 0
.LCFI34:
	subq	$16, %rsp
	.seh_stackalloc	16
	.seh_endprologue
	movl	%ecx, 16(%rbp)
.LBB2:
	.loc 1 230 14
	movl	$0, -4(%rbp)
	.loc 1 230 5
	jmp	.L50
.L53:
.LBB3:
.LBB4:
	.loc 1 232 18
	movl	$0, -8(%rbp)
	.loc 1 232 9
	jmp	.L51
.L52:
	.loc 1 232 9 is_stmt 0 discriminator 3
	addl	$1, -8(%rbp)
.L51:
	.loc 1 232 27 is_stmt 1 discriminator 1
	cmpl	$114, -8(%rbp)
	jle	.L52
.LBE4:
.LBE3:
	.loc 1 230 5 discriminator 2
	addl	$1, -4(%rbp)
.L50:
	.loc 1 230 23 discriminator 1
	movl	-4(%rbp), %eax
	cmpl	16(%rbp), %eax
	jl	.L53
.LBE2:
	.loc 1 236 1
	nop
	nop
	addq	$16, %rsp
	popq	%rbp
.LCFI35:
	ret
.LFE2429:
	.seh_endproc
	.section .rdata,"dr"
.LC12:
	.ascii "pls input the 1st num: \0"
.LC13:
	.ascii "pls input the 2nd num: \0"
.LC14:
	.ascii "result: \0"
	.text
	.globl	_Z5n_addv
	.def	_Z5n_addv;	.scl	2;	.type	32;	.endef
	.seh_proc	_Z5n_addv
_Z5n_addv:
.LFB2430:
	.loc 1 240 1
	pushq	%rbp
	.seh_pushreg	%rbp
.LCFI36:
	movq	%rsp, %rbp
	.seh_setframe	%rbp, 0
.LCFI37:
	subq	$48, %rsp
	.seh_stackalloc	48
	.seh_endprologue
	.loc 1 242 13
	leaq	.LC12(%rip), %rax
	movq	%rax, %rdx
	movq	.refptr._ZSt4cout(%rip), %rax
	movq	%rax, %rcx
	call	_ZStlsISt11char_traitsIcEERSt13basic_ostreamIcT_ES5_PKc
	.loc 1 243 12
	leaq	-8(%rbp), %rax
	movq	%rax, %rdx
	movq	.refptr._ZSt3cin(%rip), %rax
	movq	%rax, %rcx
	call	_ZNSirsERd
	.loc 1 244 13
	leaq	.LC13(%rip), %rax
	movq	%rax, %rdx
	movq	.refptr._ZSt4cout(%rip), %rax
	movq	%rax, %rcx
	call	_ZStlsISt11char_traitsIcEERSt13basic_ostreamIcT_ES5_PKc
	.loc 1 245 12
	leaq	-16(%rbp), %rax
	movq	%rax, %rdx
	movq	.refptr._ZSt3cin(%rip), %rax
	movq	%rax, %rcx
	call	_ZNSirsERd
	.loc 1 246 13
	leaq	.LC14(%rip), %rax
	movq	%rax, %rdx
	movq	.refptr._ZSt4cout(%rip), %rax
	movq	%rax, %rcx
	call	_ZStlsISt11char_traitsIcEERSt13basic_ostreamIcT_ES5_PKc
	.loc 1 246 31
	movsd	-8(%rbp), %xmm1
	movsd	-16(%rbp), %xmm0
	addsd	%xmm1, %xmm0
	movapd	%xmm0, %xmm1
	movq	%rax, %rcx
	call	_ZNSolsEd
	movq	%rax, %rcx
	.loc 1 246 36
	movq	.refptr._ZSt4endlIcSt11char_traitsIcEERSt13basic_ostreamIT_T0_ES6_(%rip), %rax
	movq	%rax, %rdx
	call	_ZNSolsEPFRSoS_E
	.loc 1 247 1
	nop
	addq	$48, %rsp
	popq	%rbp
.LCFI38:
	ret
.LFE2430:
	.seh_endproc
	.globl	_Z16n_multiplicationv
	.def	_Z16n_multiplicationv;	.scl	2;	.type	32;	.endef
	.seh_proc	_Z16n_multiplicationv
_Z16n_multiplicationv:
.LFB2431:
	.loc 1 249 1
	pushq	%rbp
	.seh_pushreg	%rbp
.LCFI39:
	movq	%rsp, %rbp
	.seh_setframe	%rbp, 0
.LCFI40:
	subq	$48, %rsp
	.seh_stackalloc	48
	.seh_endprologue
	.loc 1 251 13
	leaq	.LC12(%rip), %rax
	movq	%rax, %rdx
	movq	.refptr._ZSt4cout(%rip), %rax
	movq	%rax, %rcx
	call	_ZStlsISt11char_traitsIcEERSt13basic_ostreamIcT_ES5_PKc
	.loc 1 252 12
	leaq	-8(%rbp), %rax
	movq	%rax, %rdx
	movq	.refptr._ZSt3cin(%rip), %rax
	movq	%rax, %rcx
	call	_ZNSirsERd
	.loc 1 253 13
	leaq	.LC13(%rip), %rax
	movq	%rax, %rdx
	movq	.refptr._ZSt4cout(%rip), %rax
	movq	%rax, %rcx
	call	_ZStlsISt11char_traitsIcEERSt13basic_ostreamIcT_ES5_PKc
	.loc 1 254 12
	leaq	-16(%rbp), %rax
	movq	%rax, %rdx
	movq	.refptr._ZSt3cin(%rip), %rax
	movq	%rax, %rcx
	call	_ZNSirsERd
	.loc 1 255 13
	leaq	.LC14(%rip), %rax
	movq	%rax, %rdx
	movq	.refptr._ZSt4cout(%rip), %rax
	movq	%rax, %rcx
	call	_ZStlsISt11char_traitsIcEERSt13basic_ostreamIcT_ES5_PKc
	.loc 1 255 31
	movsd	-8(%rbp), %xmm1
	movsd	-16(%rbp), %xmm0
	mulsd	%xmm1, %xmm0
	movapd	%xmm0, %xmm1
	movq	%rax, %rcx
	call	_ZNSolsEd
	movq	%rax, %rcx
	.loc 1 255 36
	movq	.refptr._ZSt4endlIcSt11char_traitsIcEERSt13basic_ostreamIT_T0_ES6_(%rip), %rax
	movq	%rax, %rdx
	call	_ZNSolsEPFRSoS_E
	.loc 1 256 1
	nop
	addq	$48, %rsp
	popq	%rbp
.LCFI41:
	ret
.LFE2431:
	.seh_endproc
	.globl	_Z10n_subtractv
	.def	_Z10n_subtractv;	.scl	2;	.type	32;	.endef
	.seh_proc	_Z10n_subtractv
_Z10n_subtractv:
.LFB2432:
	.loc 1 258 1
	pushq	%rbp
	.seh_pushreg	%rbp
.LCFI42:
	movq	%rsp, %rbp
	.seh_setframe	%rbp, 0
.LCFI43:
	subq	$48, %rsp
	.seh_stackalloc	48
	.seh_endprologue
	.loc 1 260 13
	leaq	.LC12(%rip), %rax
	movq	%rax, %rdx
	movq	.refptr._ZSt4cout(%rip), %rax
	movq	%rax, %rcx
	call	_ZStlsISt11char_traitsIcEERSt13basic_ostreamIcT_ES5_PKc
	.loc 1 261 12
	leaq	-8(%rbp), %rax
	movq	%rax, %rdx
	movq	.refptr._ZSt3cin(%rip), %rax
	movq	%rax, %rcx
	call	_ZNSirsERd
	.loc 1 262 13
	leaq	.LC13(%rip), %rax
	movq	%rax, %rdx
	movq	.refptr._ZSt4cout(%rip), %rax
	movq	%rax, %rcx
	call	_ZStlsISt11char_traitsIcEERSt13basic_ostreamIcT_ES5_PKc
	.loc 1 263 12
	leaq	-16(%rbp), %rax
	movq	%rax, %rdx
	movq	.refptr._ZSt3cin(%rip), %rax
	movq	%rax, %rcx
	call	_ZNSirsERd
	.loc 1 264 13
	leaq	.LC14(%rip), %rax
	movq	%rax, %rdx
	movq	.refptr._ZSt4cout(%rip), %rax
	movq	%rax, %rcx
	call	_ZStlsISt11char_traitsIcEERSt13basic_ostreamIcT_ES5_PKc
	.loc 1 264 31
	movsd	-8(%rbp), %xmm0
	movsd	-16(%rbp), %xmm1
	subsd	%xmm1, %xmm0
	movapd	%xmm0, %xmm1
	movq	%rax, %rcx
	call	_ZNSolsEd
	movq	%rax, %rcx
	.loc 1 264 36
	movq	.refptr._ZSt4endlIcSt11char_traitsIcEERSt13basic_ostreamIT_T0_ES6_(%rip), %rax
	movq	%rax, %rdx
	call	_ZNSolsEPFRSoS_E
	.loc 1 265 1
	nop
	addq	$48, %rsp
	popq	%rbp
.LCFI44:
	ret
.LFE2432:
	.seh_endproc
	.section .rdata,"dr"
.LC15:
	.ascii "pls input 1st num: \0"
.LC16:
	.ascii "pls input 2nd num: \0"
	.text
	.globl	_Z10n_divisionv
	.def	_Z10n_divisionv;	.scl	2;	.type	32;	.endef
	.seh_proc	_Z10n_divisionv
_Z10n_divisionv:
.LFB2433:
	.loc 1 267 1
	pushq	%rbp
	.seh_pushreg	%rbp
.LCFI45:
	movq	%rsp, %rbp
	.seh_setframe	%rbp, 0
.LCFI46:
	subq	$48, %rsp
	.seh_stackalloc	48
	.seh_endprologue
	.loc 1 269 13
	leaq	.LC15(%rip), %rax
	movq	%rax, %rdx
	movq	.refptr._ZSt4cout(%rip), %rax
	movq	%rax, %rcx
	call	_ZStlsISt11char_traitsIcEERSt13basic_ostreamIcT_ES5_PKc
	.loc 1 270 12
	leaq	-8(%rbp), %rax
	movq	%rax, %rdx
	movq	.refptr._ZSt3cin(%rip), %rax
	movq	%rax, %rcx
	call	_ZNSirsERd
	.loc 1 271 13
	leaq	.LC16(%rip), %rax
	movq	%rax, %rdx
	movq	.refptr._ZSt4cout(%rip), %rax
	movq	%rax, %rcx
	call	_ZStlsISt11char_traitsIcEERSt13basic_ostreamIcT_ES5_PKc
	.loc 1 272 12
	leaq	-16(%rbp), %rax
	movq	%rax, %rdx
	movq	.refptr._ZSt3cin(%rip), %rax
	movq	%rax, %rcx
	call	_ZNSirsERd
	.loc 1 273 13
	leaq	.LC14(%rip), %rax
	movq	%rax, %rdx
	movq	.refptr._ZSt4cout(%rip), %rax
	movq	%rax, %rcx
	call	_ZStlsISt11char_traitsIcEERSt13basic_ostreamIcT_ES5_PKc
	.loc 1 273 31
	movsd	-8(%rbp), %xmm0
	movsd	-16(%rbp), %xmm1
	divsd	%xmm1, %xmm0
	movapd	%xmm0, %xmm1
	movq	%rax, %rcx
	call	_ZNSolsEd
	movq	%rax, %rcx
	.loc 1 273 36
	movq	.refptr._ZSt4endlIcSt11char_traitsIcEERSt13basic_ostreamIT_T0_ES6_(%rip), %rax
	movq	%rax, %rdx
	call	_ZNSolsEPFRSoS_E
	.loc 1 274 1
	nop
	addq	$48, %rsp
	popq	%rbp
.LCFI47:
	ret
.LFE2433:
	.seh_endproc
	.section .rdata,"dr"
.LC17:
	.ascii "sin(x) (x is a decimal) \0"
	.text
	.globl	_Z5s_sinv
	.def	_Z5s_sinv;	.scl	2;	.type	32;	.endef
	.seh_proc	_Z5s_sinv
_Z5s_sinv:
.LFB2434:
	.loc 1 278 1
	pushq	%rbp
	.seh_pushreg	%rbp
.LCFI48:
	movq	%rsp, %rbp
	.seh_setframe	%rbp, 0
.LCFI49:
	subq	$48, %rsp
	.seh_stackalloc	48
	.seh_endprologue
	.loc 1 280 13
	leaq	.LC17(%rip), %rax
	movq	%rax, %rdx
	movq	.refptr._ZSt4cout(%rip), %rax
	movq	%rax, %rcx
	call	_ZStlsISt11char_traitsIcEERSt13basic_ostreamIcT_ES5_PKc
	.loc 1 281 12
	leaq	-8(%rbp), %rax
	movq	%rax, %rdx
	movq	.refptr._ZSt3cin(%rip), %rax
	movq	%rax, %rcx
	call	_ZNSirsERd
	.loc 1 282 20
	movsd	-8(%rbp), %xmm0
	movsd	.LC18(%rip), %xmm2
	movapd	%xmm0, %xmm1
	divsd	%xmm2, %xmm1
	.loc 1 282 48
	movsd	.LC19(%rip), %xmm0
	mulsd	%xmm0, %xmm1
	movq	%xmm1, %rax
	movq	%rax, %xmm0
	call	sin
	movq	%xmm0, %rax
	movq	%rax, %xmm1
	movq	.refptr._ZSt4cout(%rip), %rax
	movq	%rax, %rcx
	call	_ZNSolsEd
	movq	%rax, %rcx
	.loc 1 282 53
	movq	.refptr._ZSt4endlIcSt11char_traitsIcEERSt13basic_ostreamIT_T0_ES6_(%rip), %rax
	movq	%rax, %rdx
	call	_ZNSolsEPFRSoS_E
	.loc 1 283 1
	nop
	addq	$48, %rsp
	popq	%rbp
.LCFI50:
	ret
.LFE2434:
	.seh_endproc
	.section .rdata,"dr"
.LC20:
	.ascii "cos(x) (x is a decimal) \0"
	.text
	.globl	_Z5s_cosv
	.def	_Z5s_cosv;	.scl	2;	.type	32;	.endef
	.seh_proc	_Z5s_cosv
_Z5s_cosv:
.LFB2435:
	.loc 1 285 1
	pushq	%rbp
	.seh_pushreg	%rbp
.LCFI51:
	movq	%rsp, %rbp
	.seh_setframe	%rbp, 0
.LCFI52:
	subq	$48, %rsp
	.seh_stackalloc	48
	.seh_endprologue
	.loc 1 287 13
	leaq	.LC20(%rip), %rax
	movq	%rax, %rdx
	movq	.refptr._ZSt4cout(%rip), %rax
	movq	%rax, %rcx
	call	_ZStlsISt11char_traitsIcEERSt13basic_ostreamIcT_ES5_PKc
	.loc 1 288 12
	leaq	-8(%rbp), %rax
	movq	%rax, %rdx
	movq	.refptr._ZSt3cin(%rip), %rax
	movq	%rax, %rcx
	call	_ZNSirsERd
	.loc 1 289 20
	movsd	-8(%rbp), %xmm0
	movsd	.LC18(%rip), %xmm2
	movapd	%xmm0, %xmm1
	divsd	%xmm2, %xmm1
	.loc 1 289 48
	movsd	.LC19(%rip), %xmm0
	mulsd	%xmm0, %xmm1
	movq	%xmm1, %rax
	movq	%rax, %xmm0
	call	cos
	movq	%xmm0, %rax
	movq	%rax, %xmm1
	movq	.refptr._ZSt4cout(%rip), %rax
	movq	%rax, %rcx
	call	_ZNSolsEd
	movq	%rax, %rcx
	.loc 1 289 53
	movq	.refptr._ZSt4endlIcSt11char_traitsIcEERSt13basic_ostreamIT_T0_ES6_(%rip), %rax
	movq	%rax, %rdx
	call	_ZNSolsEPFRSoS_E
	.loc 1 290 1
	nop
	addq	$48, %rsp
	popq	%rbp
.LCFI53:
	ret
.LFE2435:
	.seh_endproc
	.section .rdata,"dr"
.LC21:
	.ascii "tan(x) (x is a decimal) \0"
	.text
	.globl	_Z5s_tanv
	.def	_Z5s_tanv;	.scl	2;	.type	32;	.endef
	.seh_proc	_Z5s_tanv
_Z5s_tanv:
.LFB2436:
	.loc 1 292 1
	pushq	%rbp
	.seh_pushreg	%rbp
.LCFI54:
	movq	%rsp, %rbp
	.seh_setframe	%rbp, 0
.LCFI55:
	subq	$48, %rsp
	.seh_stackalloc	48
	.seh_endprologue
	.loc 1 294 13
	leaq	.LC21(%rip), %rax
	movq	%rax, %rdx
	movq	.refptr._ZSt4cout(%rip), %rax
	movq	%rax, %rcx
	call	_ZStlsISt11char_traitsIcEERSt13basic_ostreamIcT_ES5_PKc
	.loc 1 295 12
	leaq	-8(%rbp), %rax
	movq	%rax, %rdx
	movq	.refptr._ZSt3cin(%rip), %rax
	movq	%rax, %rcx
	call	_ZNSirsERd
	.loc 1 296 20
	movsd	-8(%rbp), %xmm0
	movsd	.LC18(%rip), %xmm2
	movapd	%xmm0, %xmm1
	divsd	%xmm2, %xmm1
	.loc 1 296 48
	movsd	.LC19(%rip), %xmm0
	mulsd	%xmm0, %xmm1
	movq	%xmm1, %rax
	movq	%rax, %xmm0
	call	tan
	movq	%xmm0, %rax
	movq	%rax, %xmm1
	movq	.refptr._ZSt4cout(%rip), %rax
	movq	%rax, %rcx
	call	_ZNSolsEd
	movq	%rax, %rcx
	.loc 1 296 53
	movq	.refptr._ZSt4endlIcSt11char_traitsIcEERSt13basic_ostreamIT_T0_ES6_(%rip), %rax
	movq	%rax, %rdx
	call	_ZNSolsEPFRSoS_E
	.loc 1 297 1
	nop
	addq	$48, %rsp
	popq	%rbp
.LCFI56:
	ret
.LFE2436:
	.seh_endproc
	.section .rdata,"dr"
.LC22:
	.ascii "land: (x)^() \0"
.LC23:
	.ascii "^(x) \0"
	.text
	.globl	_Z5s_powv
	.def	_Z5s_powv;	.scl	2;	.type	32;	.endef
	.seh_proc	_Z5s_powv
_Z5s_powv:
.LFB2437:
	.loc 1 299 1
	pushq	%rbp
	.seh_pushreg	%rbp
.LCFI57:
	movq	%rsp, %rbp
	.seh_setframe	%rbp, 0
.LCFI58:
	subq	$48, %rsp
	.seh_stackalloc	48
	.seh_endprologue
	.loc 1 301 13
	leaq	.LC22(%rip), %rax
	movq	%rax, %rdx
	movq	.refptr._ZSt4cout(%rip), %rax
	movq	%rax, %rcx
	call	_ZStlsISt11char_traitsIcEERSt13basic_ostreamIcT_ES5_PKc
	.loc 1 302 12
	leaq	-8(%rbp), %rax
	movq	%rax, %rdx
	movq	.refptr._ZSt3cin(%rip), %rax
	movq	%rax, %rcx
	call	_ZNSirsERd
	.loc 1 303 23
	movsd	-8(%rbp), %xmm0
	.loc 1 303 13
	movapd	%xmm0, %xmm1
	movq	.refptr._ZSt4cout(%rip), %rax
	movq	%rax, %rcx
	call	_ZNSolsEd
	movq	%rax, %rcx
	.loc 1 303 23
	leaq	.LC23(%rip), %rax
	movq	%rax, %rdx
	call	_ZStlsISt11char_traitsIcEERSt13basic_ostreamIcT_ES5_PKc
	.loc 1 304 12
	leaq	-16(%rbp), %rax
	movq	%rax, %rdx
	movq	.refptr._ZSt3cin(%rip), %rax
	movq	%rax, %rcx
	call	_ZNSirsERd
	.loc 1 305 30
	movsd	-16(%rbp), %xmm0
	movq	-8(%rbp), %rax
	movapd	%xmm0, %xmm1
	movq	%rax, %xmm0
	call	pow
	movq	%xmm0, %rax
	movq	%rax, %xmm1
	movq	.refptr._ZSt4cout(%rip), %rax
	movq	%rax, %rcx
	call	_ZNSolsEd
	movq	%rax, %rcx
	.loc 1 305 35
	movq	.refptr._ZSt4endlIcSt11char_traitsIcEERSt13basic_ostreamIT_T0_ES6_(%rip), %rax
	movq	%rax, %rdx
	call	_ZNSolsEPFRSoS_E
	.loc 1 306 1
	nop
	addq	$48, %rsp
	popq	%rbp
.LCFI59:
	ret
.LFE2437:
	.seh_endproc
	.section .rdata,"dr"
.LC24:
	.ascii "lg(x) \0"
	.text
	.globl	_Z4s_lgv
	.def	_Z4s_lgv;	.scl	2;	.type	32;	.endef
	.seh_proc	_Z4s_lgv
_Z4s_lgv:
.LFB2438:
	.loc 1 308 1
	pushq	%rbp
	.seh_pushreg	%rbp
.LCFI60:
	movq	%rsp, %rbp
	.seh_setframe	%rbp, 0
.LCFI61:
	subq	$48, %rsp
	.seh_stackalloc	48
	.seh_endprologue
	.loc 1 310 13
	leaq	.LC24(%rip), %rax
	movq	%rax, %rdx
	movq	.refptr._ZSt4cout(%rip), %rax
	movq	%rax, %rcx
	call	_ZStlsISt11char_traitsIcEERSt13basic_ostreamIcT_ES5_PKc
	movq	%rax, %rcx
	.loc 1 310 25
	movq	.refptr._ZSt4endlIcSt11char_traitsIcEERSt13basic_ostreamIT_T0_ES6_(%rip), %rax
	movq	%rax, %rdx
	call	_ZNSolsEPFRSoS_E
	.loc 1 311 12
	leaq	-8(%rbp), %rax
	movq	%rax, %rdx
	movq	.refptr._ZSt3cin(%rip), %rax
	movq	%rax, %rcx
	call	_ZNSirsERd
	.loc 1 312 20
	movq	-8(%rbp), %rax
	movq	%rax, %xmm0
	call	log10
	movq	%xmm0, %rax
	movq	%rax, %xmm1
	movq	.refptr._ZSt4cout(%rip), %rax
	movq	%rax, %rcx
	call	_ZNSolsEd
	movq	%rax, %rcx
	.loc 1 312 25
	movq	.refptr._ZSt4endlIcSt11char_traitsIcEERSt13basic_ostreamIT_T0_ES6_(%rip), %rax
	movq	%rax, %rdx
	call	_ZNSolsEPFRSoS_E
	.loc 1 313 1
	nop
	addq	$48, %rsp
	popq	%rbp
.LCFI62:
	ret
.LFE2438:
	.seh_endproc
	.section .rdata,"dr"
.LC25:
	.ascii "(x)! \0"
	.text
	.globl	_Z11s_factorialv
	.def	_Z11s_factorialv;	.scl	2;	.type	32;	.endef
	.seh_proc	_Z11s_factorialv
_Z11s_factorialv:
.LFB2439:
	.loc 1 315 1
	pushq	%rbp
	.seh_pushreg	%rbp
.LCFI63:
	movq	%rsp, %rbp
	.seh_setframe	%rbp, 0
.LCFI64:
	subq	$48, %rsp
	.seh_stackalloc	48
	.seh_endprologue
	.loc 1 316 9
	movl	$1, -4(%rbp)
	.loc 1 317 13
	leaq	.LC25(%rip), %rax
	movq	%rax, %rdx
	movq	.refptr._ZSt4cout(%rip), %rax
	movq	%rax, %rcx
	call	_ZStlsISt11char_traitsIcEERSt13basic_ostreamIcT_ES5_PKc
	.loc 1 318 12
	leaq	-8(%rbp), %rax
	movq	%rax, %rdx
	movq	.refptr._ZSt3cin(%rip), %rax
	movq	%rax, %rcx
	call	_ZNSirsERi
	.loc 1 319 11
	movl	-8(%rbp), %eax
	.loc 1 319 5
	cmpl	$1, %eax
	je	.L64
	.loc 1 319 21 discriminator 1
	movl	-8(%rbp), %eax
	.loc 1 319 16 discriminator 1
	testl	%eax, %eax
	jne	.L66
.L64:
	.loc 1 320 13
	movl	$1, -4(%rbp)
	.loc 1 321 5
	jmp	.L66
.L67:
	.loc 1 323 13 discriminator 2
	movl	-8(%rbp), %eax
	movl	-4(%rbp), %edx
	imull	%edx, %eax
	movl	%eax, -4(%rbp)
	.loc 1 321 5 discriminator 2
	movl	-8(%rbp), %eax
	subl	$1, %eax
	movl	%eax, -8(%rbp)
.L66:
	.loc 1 321 15 discriminator 1
	movl	-8(%rbp), %eax
	testl	%eax, %eax
	jg	.L67
	.loc 1 325 13
	movl	-4(%rbp), %eax
	movl	%eax, %edx
	movq	.refptr._ZSt4cout(%rip), %rax
	movq	%rax, %rcx
	call	_ZNSolsEi
	movq	%rax, %rcx
	.loc 1 325 20
	movq	.refptr._ZSt4endlIcSt11char_traitsIcEERSt13basic_ostreamIT_T0_ES6_(%rip), %rax
	movq	%rax, %rdx
	call	_ZNSolsEPFRSoS_E
	.loc 1 326 1
	nop
	addq	$48, %rsp
	popq	%rbp
.LCFI65:
	ret
.LFE2439:
	.seh_endproc
	.section .rdata,"dr"
.LC26:
	.ascii "1/x \0"
.LC27:
	.ascii "1/x: \0"
	.text
	.globl	_Z9s_inversev
	.def	_Z9s_inversev;	.scl	2;	.type	32;	.endef
	.seh_proc	_Z9s_inversev
_Z9s_inversev:
.LFB2440:
	.loc 1 328 1
	pushq	%rbp
	.seh_pushreg	%rbp
.LCFI66:
	movq	%rsp, %rbp
	.seh_setframe	%rbp, 0
.LCFI67:
	subq	$48, %rsp
	.seh_stackalloc	48
	.seh_endprologue
	.loc 1 330 13
	leaq	.LC26(%rip), %rax
	movq	%rax, %rdx
	movq	.refptr._ZSt4cout(%rip), %rax
	movq	%rax, %rcx
	call	_ZStlsISt11char_traitsIcEERSt13basic_ostreamIcT_ES5_PKc
	.loc 1 331 12
	leaq	-8(%rbp), %rax
	movq	%rax, %rdx
	movq	.refptr._ZSt3cin(%rip), %rax
	movq	%rax, %rcx
	call	_ZNSirsERd
	.loc 1 332 13
	leaq	.LC27(%rip), %rax
	movq	%rax, %rdx
	movq	.refptr._ZSt4cout(%rip), %rax
	movq	%rax, %rcx
	call	_ZStlsISt11char_traitsIcEERSt13basic_ostreamIcT_ES5_PKc
	.loc 1 332 30
	movsd	-8(%rbp), %xmm1
	movsd	.LC28(%rip), %xmm0
	divsd	%xmm1, %xmm0
	movapd	%xmm0, %xmm1
	movq	%rax, %rcx
	call	_ZNSolsEd
	movq	%rax, %rcx
	.loc 1 332 35
	movq	.refptr._ZSt4endlIcSt11char_traitsIcEERSt13basic_ostreamIT_T0_ES6_(%rip), %rax
	movq	%rax, %rdx
	call	_ZNSolsEPFRSoS_E
	.loc 1 333 1
	nop
	addq	$48, %rsp
	popq	%rbp
.LCFI68:
	ret
.LFE2440:
	.seh_endproc
	.section .rdata,"dr"
.LC29:
	.ascii "(x)^2 \0"
	.text
	.globl	_Z8s_squarev
	.def	_Z8s_squarev;	.scl	2;	.type	32;	.endef
	.seh_proc	_Z8s_squarev
_Z8s_squarev:
.LFB2441:
	.loc 1 335 1
	pushq	%rbp
	.seh_pushreg	%rbp
.LCFI69:
	movq	%rsp, %rbp
	.seh_setframe	%rbp, 0
.LCFI70:
	subq	$48, %rsp
	.seh_stackalloc	48
	.seh_endprologue
	.loc 1 337 13
	leaq	.LC29(%rip), %rax
	movq	%rax, %rdx
	movq	.refptr._ZSt4cout(%rip), %rax
	movq	%rax, %rcx
	call	_ZStlsISt11char_traitsIcEERSt13basic_ostreamIcT_ES5_PKc
	.loc 1 338 12
	leaq	-8(%rbp), %rax
	movq	%rax, %rdx
	movq	.refptr._ZSt3cin(%rip), %rax
	movq	%rax, %rcx
	call	_ZNSirsERd
	.loc 1 339 17
	movsd	-8(%rbp), %xmm1
	movsd	-8(%rbp), %xmm0
	mulsd	%xmm1, %xmm0
	movapd	%xmm0, %xmm1
	movq	.refptr._ZSt4cout(%rip), %rax
	movq	%rax, %rcx
	call	_ZNSolsEd
	movq	%rax, %rcx
	.loc 1 339 22
	movq	.refptr._ZSt4endlIcSt11char_traitsIcEERSt13basic_ostreamIT_T0_ES6_(%rip), %rax
	movq	%rax, %rdx
	call	_ZNSolsEPFRSoS_E
	.loc 1 340 1
	nop
	addq	$48, %rsp
	popq	%rbp
.LCFI71:
	ret
.LFE2441:
	.seh_endproc
	.section .rdata,"dr"
.LC30:
	.ascii "(x)^3 \0"
	.text
	.globl	_Z7s_cubicv
	.def	_Z7s_cubicv;	.scl	2;	.type	32;	.endef
	.seh_proc	_Z7s_cubicv
_Z7s_cubicv:
.LFB2442:
	.loc 1 342 1
	pushq	%rbp
	.seh_pushreg	%rbp
.LCFI72:
	movq	%rsp, %rbp
	.seh_setframe	%rbp, 0
.LCFI73:
	subq	$48, %rsp
	.seh_stackalloc	48
	.seh_endprologue
	.loc 1 344 13
	leaq	.LC30(%rip), %rax
	movq	%rax, %rdx
	movq	.refptr._ZSt4cout(%rip), %rax
	movq	%rax, %rcx
	call	_ZStlsISt11char_traitsIcEERSt13basic_ostreamIcT_ES5_PKc
	.loc 1 345 12
	leaq	-8(%rbp), %rax
	movq	%rax, %rdx
	movq	.refptr._ZSt3cin(%rip), %rax
	movq	%rax, %rcx
	call	_ZNSirsERd
	.loc 1 346 15
	movsd	-8(%rbp), %xmm1
	movsd	-8(%rbp), %xmm0
	mulsd	%xmm0, %xmm1
	.loc 1 346 21
	movsd	-8(%rbp), %xmm0
	mulsd	%xmm1, %xmm0
	movapd	%xmm0, %xmm1
	movq	.refptr._ZSt4cout(%rip), %rax
	movq	%rax, %rcx
	call	_ZNSolsEd
	movq	%rax, %rcx
	.loc 1 346 26
	movq	.refptr._ZSt4endlIcSt11char_traitsIcEERSt13basic_ostreamIT_T0_ES6_(%rip), %rax
	movq	%rax, %rdx
	call	_ZNSolsEPFRSoS_E
	.loc 1 347 1
	nop
	addq	$48, %rsp
	popq	%rbp
.LCFI74:
	ret
.LFE2442:
	.seh_endproc
	.section .rdata,"dr"
.LC31:
	.ascii "a: \0"
.LC32:
	.ascii "b: \0"
.LC33:
	.ascii "c: \0"
.LC34:
	.ascii "d: \0"
.LC35:
	.ascii "e: \0"
.LC37:
	.ascii "the variance of \0"
.LC38:
	.ascii " \0"
.LC39:
	.ascii " and \0"
.LC40:
	.ascii " is\12\0"
	.text
	.globl	_Z10s_variancev
	.def	_Z10s_variancev;	.scl	2;	.type	32;	.endef
	.seh_proc	_Z10s_variancev
_Z10s_variancev:
.LFB2443:
	.loc 1 349 1
	pushq	%rbp
	.seh_pushreg	%rbp
.LCFI75:
	subq	$112, %rsp
	.seh_stackalloc	112
.LCFI76:
	leaq	96(%rsp), %rbp
	.seh_setframe	%rbp, 96
.LCFI77:
	movups	%xmm6, 0(%rbp)
	.seh_savexmm	%xmm6, 96
.LCFI78:
	.seh_endprologue
	.loc 1 351 13
	leaq	.LC31(%rip), %rax
	movq	%rax, %rdx
	movq	.refptr._ZSt4cout(%rip), %rax
	movq	%rax, %rcx
	call	_ZStlsISt11char_traitsIcEERSt13basic_ostreamIcT_ES5_PKc
	.loc 1 352 12
	leaq	-24(%rbp), %rax
	movq	%rax, %rdx
	movq	.refptr._ZSt3cin(%rip), %rax
	movq	%rax, %rcx
	call	_ZNSirsERd
	.loc 1 353 13
	leaq	.LC32(%rip), %rax
	movq	%rax, %rdx
	movq	.refptr._ZSt4cout(%rip), %rax
	movq	%rax, %rcx
	call	_ZStlsISt11char_traitsIcEERSt13basic_ostreamIcT_ES5_PKc
	.loc 1 354 12
	leaq	-32(%rbp), %rax
	movq	%rax, %rdx
	movq	.refptr._ZSt3cin(%rip), %rax
	movq	%rax, %rcx
	call	_ZNSirsERd
	.loc 1 355 13
	leaq	.LC33(%rip), %rax
	movq	%rax, %rdx
	movq	.refptr._ZSt4cout(%rip), %rax
	movq	%rax, %rcx
	call	_ZStlsISt11char_traitsIcEERSt13basic_ostreamIcT_ES5_PKc
	.loc 1 356 12
	leaq	-40(%rbp), %rax
	movq	%rax, %rdx
	movq	.refptr._ZSt3cin(%rip), %rax
	movq	%rax, %rcx
	call	_ZNSirsERd
	.loc 1 357 13
	leaq	.LC34(%rip), %rax
	movq	%rax, %rdx
	movq	.refptr._ZSt4cout(%rip), %rax
	movq	%rax, %rcx
	call	_ZStlsISt11char_traitsIcEERSt13basic_ostreamIcT_ES5_PKc
	.loc 1 358 12
	leaq	-48(%rbp), %rax
	movq	%rax, %rdx
	movq	.refptr._ZSt3cin(%rip), %rax
	movq	%rax, %rcx
	call	_ZNSirsERd
	.loc 1 359 13
	leaq	.LC35(%rip), %rax
	movq	%rax, %rdx
	movq	.refptr._ZSt4cout(%rip), %rax
	movq	%rax, %rcx
	call	_ZStlsISt11char_traitsIcEERSt13basic_ostreamIcT_ES5_PKc
	.loc 1 360 12
	leaq	-56(%rbp), %rax
	movq	%rax, %rdx
	movq	.refptr._ZSt3cin(%rip), %rax
	movq	%rax, %rcx
	call	_ZNSirsERd
	.loc 1 361 14
	movsd	-24(%rbp), %xmm1
	movsd	-32(%rbp), %xmm0
	addsd	%xmm0, %xmm1
	.loc 1 361 18
	movsd	-40(%rbp), %xmm0
	addsd	%xmm0, %xmm1
	.loc 1 361 22
	movsd	-48(%rbp), %xmm0
	addsd	%xmm0, %xmm1
	.loc 1 361 26
	movsd	-56(%rbp), %xmm0
	addsd	%xmm1, %xmm0
	.loc 1 361 9
	movsd	.LC36(%rip), %xmm1
	divsd	%xmm1, %xmm0
	movsd	%xmm0, -8(%rbp)
	.loc 1 362 15
	movsd	-24(%rbp), %xmm1
	movsd	-8(%rbp), %xmm0
	subsd	%xmm1, %xmm0
	movq	%xmm0, %rax
	movl	$2, %edx
	movq	%rax, %xmm0
	call	_ZSt3powIdiEN9__gnu_cxx11__promote_2IDTplcvNS1_IT_XsrSt12__is_integerIS2_E7__valueEE6__typeELi0EcvNS1_IT0_XsrS3_IS7_E7__valueEE6__typeELi0EEXsrS3_ISB_E7__valueEE6__typeES2_S7_
	movapd	%xmm0, %xmm6
	.loc 1 362 35
	movsd	-32(%rbp), %xmm1
	movsd	-8(%rbp), %xmm0
	subsd	%xmm1, %xmm0
	movq	%xmm0, %rax
	movl	$2, %edx
	movq	%rax, %xmm0
	call	_ZSt3powIdiEN9__gnu_cxx11__promote_2IDTplcvNS1_IT_XsrSt12__is_integerIS2_E7__valueEE6__typeELi0EcvNS1_IT0_XsrS3_IS7_E7__valueEE6__typeELi0EEXsrS3_ISB_E7__valueEE6__typeES2_S7_
	.loc 1 362 30
	addsd	%xmm0, %xmm6
	.loc 1 363 15
	movsd	-40(%rbp), %xmm1
	movsd	-8(%rbp), %xmm0
	subsd	%xmm1, %xmm0
	movq	%xmm0, %rax
	movl	$2, %edx
	movq	%rax, %xmm0
	call	_ZSt3powIdiEN9__gnu_cxx11__promote_2IDTplcvNS1_IT_XsrSt12__is_integerIS2_E7__valueEE6__typeELi0EcvNS1_IT0_XsrS3_IS7_E7__valueEE6__typeELi0EEXsrS3_ISB_E7__valueEE6__typeES2_S7_
	.loc 1 362 50
	addsd	%xmm0, %xmm6
	.loc 1 363 35
	movsd	-48(%rbp), %xmm1
	movsd	-8(%rbp), %xmm0
	subsd	%xmm1, %xmm0
	movq	%xmm0, %rax
	movl	$2, %edx
	movq	%rax, %xmm0
	call	_ZSt3powIdiEN9__gnu_cxx11__promote_2IDTplcvNS1_IT_XsrSt12__is_integerIS2_E7__valueEE6__typeELi0EcvNS1_IT0_XsrS3_IS7_E7__valueEE6__typeELi0EEXsrS3_ISB_E7__valueEE6__typeES2_S7_
	.loc 1 363 30
	addsd	%xmm0, %xmm6
	.loc 1 363 55
	movsd	-56(%rbp), %xmm1
	movsd	-8(%rbp), %xmm0
	subsd	%xmm1, %xmm0
	movq	%xmm0, %rax
	movl	$2, %edx
	movq	%rax, %xmm0
	call	_ZSt3powIdiEN9__gnu_cxx11__promote_2IDTplcvNS1_IT_XsrSt12__is_integerIS2_E7__valueEE6__typeELi0EcvNS1_IT0_XsrS3_IS7_E7__valueEE6__typeELi0EEXsrS3_ISB_E7__valueEE6__typeES2_S7_
	.loc 1 363 50
	addsd	%xmm6, %xmm0
	.loc 1 362 9
	movsd	.LC36(%rip), %xmm1
	divsd	%xmm1, %xmm0
	movsd	%xmm0, -16(%rbp)
	.loc 1 365 13
	leaq	.LC37(%rip), %rax
	movq	%rax, %rdx
	movq	.refptr._ZSt4cout(%rip), %rax
	movq	%rax, %rcx
	call	_ZStlsISt11char_traitsIcEERSt13basic_ostreamIcT_ES5_PKc
	.loc 1 365 40
	movsd	-24(%rbp), %xmm0
	.loc 1 365 35
	movapd	%xmm0, %xmm1
	movq	%rax, %rcx
	call	_ZNSolsEd
	movq	%rax, %rcx
	.loc 1 365 40
	leaq	.LC38(%rip), %rax
	movq	%rax, %rdx
	call	_ZStlsISt11char_traitsIcEERSt13basic_ostreamIcT_ES5_PKc
	.loc 1 365 52
	movsd	-32(%rbp), %xmm0
	.loc 1 365 47
	movapd	%xmm0, %xmm1
	movq	%rax, %rcx
	call	_ZNSolsEd
	movq	%rax, %rcx
	.loc 1 365 52
	leaq	.LC38(%rip), %rax
	movq	%rax, %rdx
	call	_ZStlsISt11char_traitsIcEERSt13basic_ostreamIcT_ES5_PKc
	.loc 1 365 64
	movsd	-40(%rbp), %xmm0
	.loc 1 365 59
	movapd	%xmm0, %xmm1
	movq	%rax, %rcx
	call	_ZNSolsEd
	movq	%rax, %rcx
	.loc 1 365 64
	leaq	.LC38(%rip), %rax
	movq	%rax, %rdx
	call	_ZStlsISt11char_traitsIcEERSt13basic_ostreamIcT_ES5_PKc
	.loc 1 366 13
	movsd	-48(%rbp), %xmm0
	.loc 1 365 71
	movapd	%xmm0, %xmm1
	movq	%rax, %rcx
	call	_ZNSolsEd
	movq	%rax, %rcx
	.loc 1 366 13
	leaq	.LC39(%rip), %rax
	movq	%rax, %rdx
	call	_ZStlsISt11char_traitsIcEERSt13basic_ostreamIcT_ES5_PKc
	.loc 1 366 29
	movsd	-56(%rbp), %xmm0
	.loc 1 366 24
	movapd	%xmm0, %xmm1
	movq	%rax, %rcx
	call	_ZNSolsEd
	movq	%rax, %rcx
	.loc 1 366 29
	leaq	.LC40(%rip), %rax
	movq	%rax, %rdx
	call	_ZStlsISt11char_traitsIcEERSt13basic_ostreamIcT_ES5_PKc
	.loc 1 367 13
	movsd	-16(%rbp), %xmm0
	movapd	%xmm0, %xmm1
	movq	%rax, %rcx
	call	_ZNSolsEd
	movq	%rax, %rcx
	.loc 1 367 20
	movq	.refptr._ZSt4endlIcSt11char_traitsIcEERSt13basic_ostreamIT_T0_ES6_(%rip), %rax
	movq	%rax, %rdx
	call	_ZNSolsEPFRSoS_E
	.loc 1 368 1
	nop
	movups	0(%rbp), %xmm6
	addq	$112, %rsp
.LCFI79:
	popq	%rbp
.LCFI80:
	ret
.LFE2443:
	.seh_endproc
	.section .rdata,"dr"
.LC41:
	.ascii "pls input a decimal: (X)(10) \0"
.LC42:
	.ascii "d to decimal: \0"
	.text
	.globl	_Z5p_decv
	.def	_Z5p_decv;	.scl	2;	.type	32;	.endef
	.seh_proc	_Z5p_decv
_Z5p_decv:
.LFB2444:
	.loc 1 372 1
	pushq	%rbp
	.seh_pushreg	%rbp
.LCFI81:
	movq	%rsp, %rbp
	.seh_setframe	%rbp, 0
.LCFI82:
	subq	$48, %rsp
	.seh_stackalloc	48
	.seh_endprologue
	.loc 1 374 13
	leaq	.LC41(%rip), %rax
	movq	%rax, %rdx
	movq	.refptr._ZSt4cout(%rip), %rax
	movq	%rax, %rcx
	call	_ZStlsISt11char_traitsIcEERSt13basic_ostreamIcT_ES5_PKc
	.loc 1 375 12
	leaq	-4(%rbp), %rax
	movq	%rax, %rdx
	movq	.refptr._ZSt3cin(%rip), %rax
	movq	%rax, %rcx
	call	_ZNSirsERi
	.loc 1 376 13
	leaq	.LC42(%rip), %rax
	movq	%rax, %rdx
	movq	.refptr._ZSt4cout(%rip), %rax
	movq	%rax, %rcx
	call	_ZStlsISt11char_traitsIcEERSt13basic_ostreamIcT_ES5_PKc
	movq	%rax, %rcx
	.loc 1 376 38
	movl	-4(%rbp), %eax
	.loc 1 376 33
	movl	%eax, %edx
	call	_ZNSolsEi
	movq	%rax, %rcx
	.loc 1 376 38
	movq	.refptr._ZSt4endlIcSt11char_traitsIcEERSt13basic_ostreamIT_T0_ES6_(%rip), %rax
	movq	%rax, %rdx
	call	_ZNSolsEPFRSoS_E
	.loc 1 377 1
	nop
	addq	$48, %rsp
	popq	%rbp
.LCFI83:
	ret
.LFE2444:
	.seh_endproc
	.section .rdata,"dr"
	.align 8
.LC43:
	.ascii "pls imput a binary number: (X)(2) \0"
	.text
	.globl	_Z5p_binv
	.def	_Z5p_binv;	.scl	2;	.type	32;	.endef
	.seh_proc	_Z5p_binv
_Z5p_binv:
.LFB2445:
	.loc 1 379 1
	pushq	%rbp
	.seh_pushreg	%rbp
.LCFI84:
	subq	$304, %rsp
	.seh_stackalloc	304
.LCFI85:
	leaq	128(%rsp), %rbp
	.seh_setframe	%rbp, 128
.LCFI86:
	.seh_endprologue
	.loc 1 380 21
	movl	$0, 172(%rbp)
	.loc 1 381 13
	leaq	.LC43(%rip), %rax
	movq	%rax, %rdx
	movq	.refptr._ZSt4cout(%rip), %rax
	movq	%rax, %rcx
	call	_ZStlsISt11char_traitsIcEERSt13basic_ostreamIcT_ES5_PKc
	.loc 1 382 12
	leaq	160(%rbp), %rax
	movq	%rax, %rdx
	movq	.refptr._ZSt3cin(%rip), %rax
	movq	%rax, %rcx
	call	_ZNSirsERi
.LBB5:
	.loc 1 383 14
	movl	$0, 168(%rbp)
	.loc 1 383 5
	jmp	.L74
.L77:
	.loc 1 385 15
	movl	160(%rbp), %eax
	.loc 1 385 9
	testl	%eax, %eax
	je	.L80
	.loc 1 387 20 discriminator 2
	movl	160(%rbp), %edx
	movl	%edx, %eax
	sarl	$31, %eax
	shrl	$31, %eax
	addl	%eax, %edx
	andl	$1, %edx
	subl	%eax, %edx
	.loc 1 387 16 discriminator 2
	movl	168(%rbp), %eax
	cltq
	movl	%edx, -96(%rbp,%rax,4)
	.loc 1 388 11 discriminator 2
	movl	160(%rbp), %eax
	movl	%eax, %edx
	shrl	$31, %edx
	addl	%edx, %eax
	sarl	%eax
	movl	%eax, 160(%rbp)
	.loc 1 389 16 discriminator 2
	addl	$1, 172(%rbp)
	.loc 1 383 5 discriminator 2
	addl	$1, 168(%rbp)
.L74:
	.loc 1 383 23 discriminator 1
	cmpl	$63, 168(%rbp)
	jle	.L77
	jmp	.L76
.L80:
	.loc 1 386 13
	nop
.L76:
.LBE5:
.LBB6:
	.loc 1 391 14
	movl	172(%rbp), %eax
	subl	$1, %eax
	movl	%eax, 164(%rbp)
	.loc 1 391 5
	jmp	.L78
.L79:
	.loc 1 393 22
	movl	164(%rbp), %eax
	cltq
	movl	-96(%rbp,%rax,4), %eax
	movl	%eax, %edx
	movq	.refptr._ZSt4cout(%rip), %rax
	movq	%rax, %rcx
	call	_ZNSolsEi
	.loc 1 391 5
	subl	$1, 164(%rbp)
.L78:
	.loc 1 391 33 discriminator 1
	cmpl	$0, 164(%rbp)
	jns	.L79
.LBE6:
	.loc 1 395 13
	movq	.refptr._ZSt4endlIcSt11char_traitsIcEERSt13basic_ostreamIT_T0_ES6_(%rip), %rax
	movq	%rax, %rdx
	movq	.refptr._ZSt4cout(%rip), %rax
	movq	%rax, %rcx
	call	_ZNSolsEPFRSoS_E
	.loc 1 396 1
	nop
	addq	$304, %rsp
	popq	%rbp
.LCFI87:
	ret
.LFE2445:
	.seh_endproc
	.section .rdata,"dr"
	.align 8
.LC44:
	.ascii "pls input a octonary number: (X)(8) \0"
	.text
	.globl	_Z5p_octv
	.def	_Z5p_octv;	.scl	2;	.type	32;	.endef
	.seh_proc	_Z5p_octv
_Z5p_octv:
.LFB2446:
	.loc 1 398 1
	pushq	%rbp
	.seh_pushreg	%rbp
.LCFI88:
	movq	%rsp, %rbp
	.seh_setframe	%rbp, 0
.LCFI89:
	subq	$176, %rsp
	.seh_stackalloc	176
	.seh_endprologue
	.loc 1 400 9
	movl	$0, -4(%rbp)
	.loc 1 401 13
	leaq	.LC44(%rip), %rax
	movq	%rax, %rdx
	movq	.refptr._ZSt4cout(%rip), %rax
	movq	%rax, %rcx
	call	_ZStlsISt11char_traitsIcEERSt13basic_ostreamIcT_ES5_PKc
	.loc 1 402 12
	leaq	-16(%rbp), %rax
	movq	%rax, %rdx
	movq	.refptr._ZSt3cin(%rip), %rax
	movq	%rax, %rcx
	call	_ZNSirsERi
.LBB7:
	.loc 1 403 14
	movl	$0, -8(%rbp)
	.loc 1 403 5
	jmp	.L82
.L85:
	.loc 1 405 15
	movl	-16(%rbp), %eax
	.loc 1 405 9
	testl	%eax, %eax
	je	.L88
	.loc 1 407 20 discriminator 2
	movl	-16(%rbp), %edx
	movl	%edx, %eax
	sarl	$31, %eax
	shrl	$29, %eax
	addl	%eax, %edx
	andl	$7, %edx
	subl	%eax, %edx
	.loc 1 407 16 discriminator 2
	movl	-8(%rbp), %eax
	cltq
	movl	%edx, -144(%rbp,%rax,4)
	.loc 1 408 11 discriminator 2
	movl	-16(%rbp), %eax
	leal	7(%rax), %edx
	testl	%eax, %eax
	cmovs	%edx, %eax
	sarl	$3, %eax
	movl	%eax, -16(%rbp)
	.loc 1 403 32 discriminator 2
	addl	$1, -8(%rbp)
	addl	$1, -4(%rbp)
.L82:
	.loc 1 403 23 discriminator 1
	cmpl	$31, -8(%rbp)
	jle	.L85
	jmp	.L84
.L88:
	.loc 1 406 13
	nop
.L84:
.LBE7:
.LBB8:
	.loc 1 410 14
	movl	-4(%rbp), %eax
	subl	$1, %eax
	movl	%eax, -12(%rbp)
	.loc 1 410 5
	jmp	.L86
.L87:
	.loc 1 412 22
	movl	-12(%rbp), %eax
	cltq
	movl	-144(%rbp,%rax,4), %eax
	movl	%eax, %edx
	movq	.refptr._ZSt4cout(%rip), %rax
	movq	%rax, %rcx
	call	_ZNSolsEi
	.loc 1 410 5
	subl	$1, -12(%rbp)
.L86:
	.loc 1 410 33 discriminator 1
	cmpl	$0, -12(%rbp)
	jns	.L87
.LBE8:
	.loc 1 414 13
	movq	.refptr._ZSt4endlIcSt11char_traitsIcEERSt13basic_ostreamIT_T0_ES6_(%rip), %rax
	movq	%rax, %rdx
	movq	.refptr._ZSt4cout(%rip), %rax
	movq	%rax, %rcx
	call	_ZNSolsEPFRSoS_E
	.loc 1 415 1
	nop
	addq	$176, %rsp
	popq	%rbp
.LCFI90:
	ret
.LFE2446:
	.seh_endproc
	.section	.text$_ZSt3powIdiEN9__gnu_cxx11__promote_2IDTplcvNS1_IT_XsrSt12__is_integerIS2_E7__valueEE6__typeELi0EcvNS1_IT0_XsrS3_IS7_E7__valueEE6__typeELi0EEXsrS3_ISB_E7__valueEE6__typeES2_S7_,"x"
	.linkonce discard
	.globl	_ZSt3powIdiEN9__gnu_cxx11__promote_2IDTplcvNS1_IT_XsrSt12__is_integerIS2_E7__valueEE6__typeELi0EcvNS1_IT0_XsrS3_IS7_E7__valueEE6__typeELi0EEXsrS3_ISB_E7__valueEE6__typeES2_S7_
	.def	_ZSt3powIdiEN9__gnu_cxx11__promote_2IDTplcvNS1_IT_XsrSt12__is_integerIS2_E7__valueEE6__typeELi0EcvNS1_IT0_XsrS3_IS7_E7__valueEE6__typeELi0EEXsrS3_ISB_E7__valueEE6__typeES2_S7_;	.scl	2;	.type	32;	.endef
	.seh_proc	_ZSt3powIdiEN9__gnu_cxx11__promote_2IDTplcvNS1_IT_XsrSt12__is_integerIS2_E7__valueEE6__typeELi0EcvNS1_IT0_XsrS3_IS7_E7__valueEE6__typeELi0EEXsrS3_ISB_E7__valueEE6__typeES2_S7_
_ZSt3powIdiEN9__gnu_cxx11__promote_2IDTplcvNS1_IT_XsrSt12__is_integerIS2_E7__valueEE6__typeELi0EcvNS1_IT0_XsrS3_IS7_E7__valueEE6__typeELi0EEXsrS3_ISB_E7__valueEE6__typeES2_S7_:
.LFB2767:
	.file 2 "D:/Env/msys64/mingw64/include/c++/12.1.0/cmath"
	.loc 2 415 5
	pushq	%rbp
	.seh_pushreg	%rbp
.LCFI91:
	movq	%rsp, %rbp
	.seh_setframe	%rbp, 0
.LCFI92:
	subq	$32, %rsp
	.seh_stackalloc	32
	.seh_endprologue
	movsd	%xmm0, 16(%rbp)
	movl	%edx, 24(%rbp)
	.loc 2 418 17
	pxor	%xmm0, %xmm0
	cvtsi2sdl	24(%rbp), %xmm0
	movq	16(%rbp), %rax
	movapd	%xmm0, %xmm1
	movq	%rax, %xmm0
	call	pow
	movq	%xmm0, %rax
	.loc 2 419 5
	movq	%rax, %xmm0
	addq	$32, %rsp
	popq	%rbp
.LCFI93:
	ret
.LFE2767:
	.seh_endproc
	.text
	.def	__tcf_0;	.scl	3;	.type	32;	.endef
	.seh_proc	__tcf_0
__tcf_0:
.LFB3133:
	.file 3 "D:/Env/msys64/mingw64/include/c++/12.1.0/iostream"
	.loc 3 74 25
	pushq	%rbp
	.seh_pushreg	%rbp
.LCFI94:
	movq	%rsp, %rbp
	.seh_setframe	%rbp, 0
.LCFI95:
	subq	$32, %rsp
	.seh_stackalloc	32
	.seh_endprologue
	.loc 3 74 25
	leaq	_ZStL8__ioinit(%rip), %rax
	movq	%rax, %rcx
	call	_ZNSt8ios_base4InitD1Ev
	nop
	addq	$32, %rsp
	popq	%rbp
.LCFI96:
	ret
.LFE3133:
	.seh_endproc
	.def	_Z41__static_initialization_and_destruction_0ii;	.scl	3;	.type	32;	.endef
	.seh_proc	_Z41__static_initialization_and_destruction_0ii
_Z41__static_initialization_and_destruction_0ii:
.LFB3132:
	.loc 1 415 1
	pushq	%rbp
	.seh_pushreg	%rbp
.LCFI97:
	movq	%rsp, %rbp
	.seh_setframe	%rbp, 0
.LCFI98:
	subq	$32, %rsp
	.seh_stackalloc	32
	.seh_endprologue
	movl	%ecx, 16(%rbp)
	movl	%edx, 24(%rbp)
	.loc 1 415 1
	cmpl	$1, 16(%rbp)
	jne	.L94
	.loc 1 415 1 is_stmt 0 discriminator 1
	cmpl	$65535, 24(%rbp)
	jne	.L94
	.loc 3 74 25 is_stmt 1
	leaq	_ZStL8__ioinit(%rip), %rax
	movq	%rax, %rcx
	call	_ZNSt8ios_base4InitC1Ev
	leaq	__tcf_0(%rip), %rax
	movq	%rax, %rcx
	call	atexit
.L94:
	.loc 1 415 1
	nop
	addq	$32, %rsp
	popq	%rbp
.LCFI99:
	ret
.LFE3132:
	.seh_endproc
	.def	_GLOBAL__sub_I_main;	.scl	3;	.type	32;	.endef
	.seh_proc	_GLOBAL__sub_I_main
_GLOBAL__sub_I_main:
.LFB3134:
	.loc 1 415 1
	pushq	%rbp
	.seh_pushreg	%rbp
.LCFI100:
	movq	%rsp, %rbp
	.seh_setframe	%rbp, 0
.LCFI101:
	subq	$32, %rsp
	.seh_stackalloc	32
	.seh_endprologue
	.loc 1 415 1
	movl	$65535, %edx
	movl	$1, %ecx
	call	_Z41__static_initialization_and_destruction_0ii
	nop
	addq	$32, %rsp
	popq	%rbp
.LCFI102:
	ret
.LFE3134:
	.seh_endproc
	.section	.ctors,"w"
	.align 8
	.quad	_GLOBAL__sub_I_main
	.section .rdata,"dr"
	.align 8
.LC18:
	.long	0
	.long	1080459264
	.align 8
.LC19:
	.long	1413754136
	.long	1074340347
	.align 8
.LC28:
	.long	0
	.long	1072693248
	.align 8
.LC36:
	.long	0
	.long	1075052544
	.section	.debug_frame,"dr"
.Lframe0:
	.long	.LECIE0-.LSCIE0
.LSCIE0:
	.long	0xffffffff
	.byte	0x3
	.ascii "\0"
	.uleb128 0x1
	.sleb128 -8
	.uleb128 0x10
	.byte	0xc
	.uleb128 0x7
	.uleb128 0x8
	.byte	0x90
	.uleb128 0x1
	.align 8
.LECIE0:
.LSFDE0:
	.long	.LEFDE0-.LASFDE0
.LASFDE0:
	.secrel32	.Lframe0
	.quad	.LFB2418
	.quad	.LFE2418-.LFB2418
	.byte	0x4
	.long	.LCFI0-.LFB2418
	.byte	0xe
	.uleb128 0x10
	.byte	0x86
	.uleb128 0x2
	.byte	0x4
	.long	.LCFI1-.LCFI0
	.byte	0xd
	.uleb128 0x6
	.byte	0x4
	.long	.LCFI2-.LCFI1
	.byte	0xc6
	.byte	0xc
	.uleb128 0x7
	.uleb128 0x8
	.align 8
.LEFDE0:
.LSFDE2:
	.long	.LEFDE2-.LASFDE2
.LASFDE2:
	.secrel32	.Lframe0
	.quad	.LFB2419
	.quad	.LFE2419-.LFB2419
	.byte	0x4
	.long	.LCFI3-.LFB2419
	.byte	0xe
	.uleb128 0x10
	.byte	0x86
	.uleb128 0x2
	.byte	0x4
	.long	.LCFI4-.LCFI3
	.byte	0xd
	.uleb128 0x6
	.byte	0x4
	.long	.LCFI5-.LCFI4
	.byte	0xc6
	.byte	0xc
	.uleb128 0x7
	.uleb128 0x8
	.align 8
.LEFDE2:
.LSFDE4:
	.long	.LEFDE4-.LASFDE4
.LASFDE4:
	.secrel32	.Lframe0
	.quad	.LFB2420
	.quad	.LFE2420-.LFB2420
	.byte	0x4
	.long	.LCFI6-.LFB2420
	.byte	0xe
	.uleb128 0x10
	.byte	0x86
	.uleb128 0x2
	.byte	0x4
	.long	.LCFI7-.LCFI6
	.byte	0xd
	.uleb128 0x6
	.byte	0x4
	.long	.LCFI8-.LCFI7
	.byte	0xc6
	.byte	0xc
	.uleb128 0x7
	.uleb128 0x8
	.align 8
.LEFDE4:
.LSFDE6:
	.long	.LEFDE6-.LASFDE6
.LASFDE6:
	.secrel32	.Lframe0
	.quad	.LFB2421
	.quad	.LFE2421-.LFB2421
	.byte	0x4
	.long	.LCFI9-.LFB2421
	.byte	0xe
	.uleb128 0x10
	.byte	0x86
	.uleb128 0x2
	.byte	0x4
	.long	.LCFI10-.LCFI9
	.byte	0xd
	.uleb128 0x6
	.byte	0x4
	.long	.LCFI11-.LCFI10
	.byte	0xc6
	.byte	0xc
	.uleb128 0x7
	.uleb128 0x8
	.align 8
.LEFDE6:
.LSFDE8:
	.long	.LEFDE8-.LASFDE8
.LASFDE8:
	.secrel32	.Lframe0
	.quad	.LFB2422
	.quad	.LFE2422-.LFB2422
	.byte	0x4
	.long	.LCFI12-.LFB2422
	.byte	0xe
	.uleb128 0x10
	.byte	0x86
	.uleb128 0x2
	.byte	0x4
	.long	.LCFI13-.LCFI12
	.byte	0xd
	.uleb128 0x6
	.byte	0x4
	.long	.LCFI14-.LCFI13
	.byte	0xc6
	.byte	0xc
	.uleb128 0x7
	.uleb128 0x8
	.align 8
.LEFDE8:
.LSFDE10:
	.long	.LEFDE10-.LASFDE10
.LASFDE10:
	.secrel32	.Lframe0
	.quad	.LFB2423
	.quad	.LFE2423-.LFB2423
	.byte	0x4
	.long	.LCFI15-.LFB2423
	.byte	0xe
	.uleb128 0x10
	.byte	0x86
	.uleb128 0x2
	.byte	0x4
	.long	.LCFI16-.LCFI15
	.byte	0xd
	.uleb128 0x6
	.byte	0x4
	.long	.LCFI17-.LCFI16
	.byte	0xc6
	.byte	0xc
	.uleb128 0x7
	.uleb128 0x8
	.align 8
.LEFDE10:
.LSFDE12:
	.long	.LEFDE12-.LASFDE12
.LASFDE12:
	.secrel32	.Lframe0
	.quad	.LFB2424
	.quad	.LFE2424-.LFB2424
	.byte	0x4
	.long	.LCFI18-.LFB2424
	.byte	0xe
	.uleb128 0x10
	.byte	0x86
	.uleb128 0x2
	.byte	0x4
	.long	.LCFI19-.LCFI18
	.byte	0xd
	.uleb128 0x6
	.byte	0x4
	.long	.LCFI20-.LCFI19
	.byte	0xc6
	.byte	0xc
	.uleb128 0x7
	.uleb128 0x8
	.align 8
.LEFDE12:
.LSFDE14:
	.long	.LEFDE14-.LASFDE14
.LASFDE14:
	.secrel32	.Lframe0
	.quad	.LFB2425
	.quad	.LFE2425-.LFB2425
	.byte	0x4
	.long	.LCFI21-.LFB2425
	.byte	0xe
	.uleb128 0x10
	.byte	0x86
	.uleb128 0x2
	.byte	0x4
	.long	.LCFI22-.LCFI21
	.byte	0xd
	.uleb128 0x6
	.byte	0x4
	.long	.LCFI23-.LCFI22
	.byte	0xc6
	.byte	0xc
	.uleb128 0x7
	.uleb128 0x8
	.align 8
.LEFDE14:
.LSFDE16:
	.long	.LEFDE16-.LASFDE16
.LASFDE16:
	.secrel32	.Lframe0
	.quad	.LFB2426
	.quad	.LFE2426-.LFB2426
	.byte	0x4
	.long	.LCFI24-.LFB2426
	.byte	0xe
	.uleb128 0x10
	.byte	0x86
	.uleb128 0x2
	.byte	0x4
	.long	.LCFI25-.LCFI24
	.byte	0xd
	.uleb128 0x6
	.byte	0x4
	.long	.LCFI26-.LCFI25
	.byte	0xc6
	.byte	0xc
	.uleb128 0x7
	.uleb128 0x8
	.align 8
.LEFDE16:
.LSFDE18:
	.long	.LEFDE18-.LASFDE18
.LASFDE18:
	.secrel32	.Lframe0
	.quad	.LFB2427
	.quad	.LFE2427-.LFB2427
	.byte	0x4
	.long	.LCFI27-.LFB2427
	.byte	0xe
	.uleb128 0x10
	.byte	0x86
	.uleb128 0x2
	.byte	0x4
	.long	.LCFI28-.LCFI27
	.byte	0xd
	.uleb128 0x6
	.byte	0x4
	.long	.LCFI29-.LCFI28
	.byte	0xc6
	.byte	0xc
	.uleb128 0x7
	.uleb128 0x8
	.align 8
.LEFDE18:
.LSFDE20:
	.long	.LEFDE20-.LASFDE20
.LASFDE20:
	.secrel32	.Lframe0
	.quad	.LFB2428
	.quad	.LFE2428-.LFB2428
	.byte	0x4
	.long	.LCFI30-.LFB2428
	.byte	0xe
	.uleb128 0x10
	.byte	0x86
	.uleb128 0x2
	.byte	0x4
	.long	.LCFI31-.LCFI30
	.byte	0xd
	.uleb128 0x6
	.byte	0x4
	.long	.LCFI32-.LCFI31
	.byte	0xc6
	.byte	0xc
	.uleb128 0x7
	.uleb128 0x8
	.align 8
.LEFDE20:
.LSFDE22:
	.long	.LEFDE22-.LASFDE22
.LASFDE22:
	.secrel32	.Lframe0
	.quad	.LFB2429
	.quad	.LFE2429-.LFB2429
	.byte	0x4
	.long	.LCFI33-.LFB2429
	.byte	0xe
	.uleb128 0x10
	.byte	0x86
	.uleb128 0x2
	.byte	0x4
	.long	.LCFI34-.LCFI33
	.byte	0xd
	.uleb128 0x6
	.byte	0x4
	.long	.LCFI35-.LCFI34
	.byte	0xc6
	.byte	0xc
	.uleb128 0x7
	.uleb128 0x8
	.align 8
.LEFDE22:
.LSFDE24:
	.long	.LEFDE24-.LASFDE24
.LASFDE24:
	.secrel32	.Lframe0
	.quad	.LFB2430
	.quad	.LFE2430-.LFB2430
	.byte	0x4
	.long	.LCFI36-.LFB2430
	.byte	0xe
	.uleb128 0x10
	.byte	0x86
	.uleb128 0x2
	.byte	0x4
	.long	.LCFI37-.LCFI36
	.byte	0xd
	.uleb128 0x6
	.byte	0x4
	.long	.LCFI38-.LCFI37
	.byte	0xc6
	.byte	0xc
	.uleb128 0x7
	.uleb128 0x8
	.align 8
.LEFDE24:
.LSFDE26:
	.long	.LEFDE26-.LASFDE26
.LASFDE26:
	.secrel32	.Lframe0
	.quad	.LFB2431
	.quad	.LFE2431-.LFB2431
	.byte	0x4
	.long	.LCFI39-.LFB2431
	.byte	0xe
	.uleb128 0x10
	.byte	0x86
	.uleb128 0x2
	.byte	0x4
	.long	.LCFI40-.LCFI39
	.byte	0xd
	.uleb128 0x6
	.byte	0x4
	.long	.LCFI41-.LCFI40
	.byte	0xc6
	.byte	0xc
	.uleb128 0x7
	.uleb128 0x8
	.align 8
.LEFDE26:
.LSFDE28:
	.long	.LEFDE28-.LASFDE28
.LASFDE28:
	.secrel32	.Lframe0
	.quad	.LFB2432
	.quad	.LFE2432-.LFB2432
	.byte	0x4
	.long	.LCFI42-.LFB2432
	.byte	0xe
	.uleb128 0x10
	.byte	0x86
	.uleb128 0x2
	.byte	0x4
	.long	.LCFI43-.LCFI42
	.byte	0xd
	.uleb128 0x6
	.byte	0x4
	.long	.LCFI44-.LCFI43
	.byte	0xc6
	.byte	0xc
	.uleb128 0x7
	.uleb128 0x8
	.align 8
.LEFDE28:
.LSFDE30:
	.long	.LEFDE30-.LASFDE30
.LASFDE30:
	.secrel32	.Lframe0
	.quad	.LFB2433
	.quad	.LFE2433-.LFB2433
	.byte	0x4
	.long	.LCFI45-.LFB2433
	.byte	0xe
	.uleb128 0x10
	.byte	0x86
	.uleb128 0x2
	.byte	0x4
	.long	.LCFI46-.LCFI45
	.byte	0xd
	.uleb128 0x6
	.byte	0x4
	.long	.LCFI47-.LCFI46
	.byte	0xc6
	.byte	0xc
	.uleb128 0x7
	.uleb128 0x8
	.align 8
.LEFDE30:
.LSFDE32:
	.long	.LEFDE32-.LASFDE32
.LASFDE32:
	.secrel32	.Lframe0
	.quad	.LFB2434
	.quad	.LFE2434-.LFB2434
	.byte	0x4
	.long	.LCFI48-.LFB2434
	.byte	0xe
	.uleb128 0x10
	.byte	0x86
	.uleb128 0x2
	.byte	0x4
	.long	.LCFI49-.LCFI48
	.byte	0xd
	.uleb128 0x6
	.byte	0x4
	.long	.LCFI50-.LCFI49
	.byte	0xc6
	.byte	0xc
	.uleb128 0x7
	.uleb128 0x8
	.align 8
.LEFDE32:
.LSFDE34:
	.long	.LEFDE34-.LASFDE34
.LASFDE34:
	.secrel32	.Lframe0
	.quad	.LFB2435
	.quad	.LFE2435-.LFB2435
	.byte	0x4
	.long	.LCFI51-.LFB2435
	.byte	0xe
	.uleb128 0x10
	.byte	0x86
	.uleb128 0x2
	.byte	0x4
	.long	.LCFI52-.LCFI51
	.byte	0xd
	.uleb128 0x6
	.byte	0x4
	.long	.LCFI53-.LCFI52
	.byte	0xc6
	.byte	0xc
	.uleb128 0x7
	.uleb128 0x8
	.align 8
.LEFDE34:
.LSFDE36:
	.long	.LEFDE36-.LASFDE36
.LASFDE36:
	.secrel32	.Lframe0
	.quad	.LFB2436
	.quad	.LFE2436-.LFB2436
	.byte	0x4
	.long	.LCFI54-.LFB2436
	.byte	0xe
	.uleb128 0x10
	.byte	0x86
	.uleb128 0x2
	.byte	0x4
	.long	.LCFI55-.LCFI54
	.byte	0xd
	.uleb128 0x6
	.byte	0x4
	.long	.LCFI56-.LCFI55
	.byte	0xc6
	.byte	0xc
	.uleb128 0x7
	.uleb128 0x8
	.align 8
.LEFDE36:
.LSFDE38:
	.long	.LEFDE38-.LASFDE38
.LASFDE38:
	.secrel32	.Lframe0
	.quad	.LFB2437
	.quad	.LFE2437-.LFB2437
	.byte	0x4
	.long	.LCFI57-.LFB2437
	.byte	0xe
	.uleb128 0x10
	.byte	0x86
	.uleb128 0x2
	.byte	0x4
	.long	.LCFI58-.LCFI57
	.byte	0xd
	.uleb128 0x6
	.byte	0x4
	.long	.LCFI59-.LCFI58
	.byte	0xc6
	.byte	0xc
	.uleb128 0x7
	.uleb128 0x8
	.align 8
.LEFDE38:
.LSFDE40:
	.long	.LEFDE40-.LASFDE40
.LASFDE40:
	.secrel32	.Lframe0
	.quad	.LFB2438
	.quad	.LFE2438-.LFB2438
	.byte	0x4
	.long	.LCFI60-.LFB2438
	.byte	0xe
	.uleb128 0x10
	.byte	0x86
	.uleb128 0x2
	.byte	0x4
	.long	.LCFI61-.LCFI60
	.byte	0xd
	.uleb128 0x6
	.byte	0x4
	.long	.LCFI62-.LCFI61
	.byte	0xc6
	.byte	0xc
	.uleb128 0x7
	.uleb128 0x8
	.align 8
.LEFDE40:
.LSFDE42:
	.long	.LEFDE42-.LASFDE42
.LASFDE42:
	.secrel32	.Lframe0
	.quad	.LFB2439
	.quad	.LFE2439-.LFB2439
	.byte	0x4
	.long	.LCFI63-.LFB2439
	.byte	0xe
	.uleb128 0x10
	.byte	0x86
	.uleb128 0x2
	.byte	0x4
	.long	.LCFI64-.LCFI63
	.byte	0xd
	.uleb128 0x6
	.byte	0x4
	.long	.LCFI65-.LCFI64
	.byte	0xc6
	.byte	0xc
	.uleb128 0x7
	.uleb128 0x8
	.align 8
.LEFDE42:
.LSFDE44:
	.long	.LEFDE44-.LASFDE44
.LASFDE44:
	.secrel32	.Lframe0
	.quad	.LFB2440
	.quad	.LFE2440-.LFB2440
	.byte	0x4
	.long	.LCFI66-.LFB2440
	.byte	0xe
	.uleb128 0x10
	.byte	0x86
	.uleb128 0x2
	.byte	0x4
	.long	.LCFI67-.LCFI66
	.byte	0xd
	.uleb128 0x6
	.byte	0x4
	.long	.LCFI68-.LCFI67
	.byte	0xc6
	.byte	0xc
	.uleb128 0x7
	.uleb128 0x8
	.align 8
.LEFDE44:
.LSFDE46:
	.long	.LEFDE46-.LASFDE46
.LASFDE46:
	.secrel32	.Lframe0
	.quad	.LFB2441
	.quad	.LFE2441-.LFB2441
	.byte	0x4
	.long	.LCFI69-.LFB2441
	.byte	0xe
	.uleb128 0x10
	.byte	0x86
	.uleb128 0x2
	.byte	0x4
	.long	.LCFI70-.LCFI69
	.byte	0xd
	.uleb128 0x6
	.byte	0x4
	.long	.LCFI71-.LCFI70
	.byte	0xc6
	.byte	0xc
	.uleb128 0x7
	.uleb128 0x8
	.align 8
.LEFDE46:
.LSFDE48:
	.long	.LEFDE48-.LASFDE48
.LASFDE48:
	.secrel32	.Lframe0
	.quad	.LFB2442
	.quad	.LFE2442-.LFB2442
	.byte	0x4
	.long	.LCFI72-.LFB2442
	.byte	0xe
	.uleb128 0x10
	.byte	0x86
	.uleb128 0x2
	.byte	0x4
	.long	.LCFI73-.LCFI72
	.byte	0xd
	.uleb128 0x6
	.byte	0x4
	.long	.LCFI74-.LCFI73
	.byte	0xc6
	.byte	0xc
	.uleb128 0x7
	.uleb128 0x8
	.align 8
.LEFDE48:
.LSFDE50:
	.long	.LEFDE50-.LASFDE50
.LASFDE50:
	.secrel32	.Lframe0
	.quad	.LFB2443
	.quad	.LFE2443-.LFB2443
	.byte	0x4
	.long	.LCFI75-.LFB2443
	.byte	0xe
	.uleb128 0x10
	.byte	0x86
	.uleb128 0x2
	.byte	0x4
	.long	.LCFI76-.LCFI75
	.byte	0xe
	.uleb128 0x80
	.byte	0x4
	.long	.LCFI77-.LCFI76
	.byte	0xc
	.uleb128 0x6
	.uleb128 0x20
	.byte	0x4
	.long	.LCFI78-.LCFI77
	.byte	0x97
	.uleb128 0x4
	.byte	0x4
	.long	.LCFI79-.LCFI78
	.byte	0xd7
	.byte	0x4
	.long	.LCFI80-.LCFI79
	.byte	0xc6
	.byte	0x12
	.uleb128 0x7
	.sleb128 13
	.align 8
.LEFDE50:
.LSFDE52:
	.long	.LEFDE52-.LASFDE52
.LASFDE52:
	.secrel32	.Lframe0
	.quad	.LFB2444
	.quad	.LFE2444-.LFB2444
	.byte	0x4
	.long	.LCFI81-.LFB2444
	.byte	0xe
	.uleb128 0x10
	.byte	0x86
	.uleb128 0x2
	.byte	0x4
	.long	.LCFI82-.LCFI81
	.byte	0xd
	.uleb128 0x6
	.byte	0x4
	.long	.LCFI83-.LCFI82
	.byte	0xc6
	.byte	0xc
	.uleb128 0x7
	.uleb128 0x8
	.align 8
.LEFDE52:
.LSFDE54:
	.long	.LEFDE54-.LASFDE54
.LASFDE54:
	.secrel32	.Lframe0
	.quad	.LFB2445
	.quad	.LFE2445-.LFB2445
	.byte	0x4
	.long	.LCFI84-.LFB2445
	.byte	0xe
	.uleb128 0x10
	.byte	0x86
	.uleb128 0x2
	.byte	0x4
	.long	.LCFI85-.LCFI84
	.byte	0xe
	.uleb128 0x140
	.byte	0x4
	.long	.LCFI86-.LCFI85
	.byte	0xc
	.uleb128 0x6
	.uleb128 0xc0
	.byte	0x4
	.long	.LCFI87-.LCFI86
	.byte	0xc6
	.byte	0x12
	.uleb128 0x7
	.sleb128 37
	.align 8
.LEFDE54:
.LSFDE56:
	.long	.LEFDE56-.LASFDE56
.LASFDE56:
	.secrel32	.Lframe0
	.quad	.LFB2446
	.quad	.LFE2446-.LFB2446
	.byte	0x4
	.long	.LCFI88-.LFB2446
	.byte	0xe
	.uleb128 0x10
	.byte	0x86
	.uleb128 0x2
	.byte	0x4
	.long	.LCFI89-.LCFI88
	.byte	0xd
	.uleb128 0x6
	.byte	0x4
	.long	.LCFI90-.LCFI89
	.byte	0xc6
	.byte	0xc
	.uleb128 0x7
	.uleb128 0x8
	.align 8
.LEFDE56:
.LSFDE58:
	.long	.LEFDE58-.LASFDE58
.LASFDE58:
	.secrel32	.Lframe0
	.quad	.LFB2767
	.quad	.LFE2767-.LFB2767
	.byte	0x4
	.long	.LCFI91-.LFB2767
	.byte	0xe
	.uleb128 0x10
	.byte	0x86
	.uleb128 0x2
	.byte	0x4
	.long	.LCFI92-.LCFI91
	.byte	0xd
	.uleb128 0x6
	.byte	0x4
	.long	.LCFI93-.LCFI92
	.byte	0xc6
	.byte	0xc
	.uleb128 0x7
	.uleb128 0x8
	.align 8
.LEFDE58:
.LSFDE60:
	.long	.LEFDE60-.LASFDE60
.LASFDE60:
	.secrel32	.Lframe0
	.quad	.LFB3133
	.quad	.LFE3133-.LFB3133
	.byte	0x4
	.long	.LCFI94-.LFB3133
	.byte	0xe
	.uleb128 0x10
	.byte	0x86
	.uleb128 0x2
	.byte	0x4
	.long	.LCFI95-.LCFI94
	.byte	0xd
	.uleb128 0x6
	.byte	0x4
	.long	.LCFI96-.LCFI95
	.byte	0xc6
	.byte	0xc
	.uleb128 0x7
	.uleb128 0x8
	.align 8
.LEFDE60:
.LSFDE62:
	.long	.LEFDE62-.LASFDE62
.LASFDE62:
	.secrel32	.Lframe0
	.quad	.LFB3132
	.quad	.LFE3132-.LFB3132
	.byte	0x4
	.long	.LCFI97-.LFB3132
	.byte	0xe
	.uleb128 0x10
	.byte	0x86
	.uleb128 0x2
	.byte	0x4
	.long	.LCFI98-.LCFI97
	.byte	0xd
	.uleb128 0x6
	.byte	0x4
	.long	.LCFI99-.LCFI98
	.byte	0xc6
	.byte	0xc
	.uleb128 0x7
	.uleb128 0x8
	.align 8
.LEFDE62:
.LSFDE64:
	.long	.LEFDE64-.LASFDE64
.LASFDE64:
	.secrel32	.Lframe0
	.quad	.LFB3134
	.quad	.LFE3134-.LFB3134
	.byte	0x4
	.long	.LCFI100-.LFB3134
	.byte	0xe
	.uleb128 0x10
	.byte	0x86
	.uleb128 0x2
	.byte	0x4
	.long	.LCFI101-.LCFI100
	.byte	0xd
	.uleb128 0x6
	.byte	0x4
	.long	.LCFI102-.LCFI101
	.byte	0xc6
	.byte	0xc
	.uleb128 0x7
	.uleb128 0x8
	.align 8
.LEFDE64:
	.text
.Letext0:
	.file 4 "D:/Env/msys64/mingw64/include/corecrt.h"
	.file 5 "D:/Env/msys64/mingw64/include/locale.h"
	.file 6 "D:/Env/msys64/mingw64/include/wchar.h"
	.file 7 "D:/Env/msys64/mingw64/include/c++/12.1.0/cwchar"
	.file 8 "D:/Env/msys64/mingw64/include/c++/12.1.0/x86_64-w64-mingw32/bits/c++config.h"
	.file 9 "D:/Env/msys64/mingw64/include/c++/12.1.0/type_traits"
	.file 10 "D:/Env/msys64/mingw64/include/c++/12.1.0/bits/exception_ptr.h"
	.file 11 "D:/Env/msys64/mingw64/include/c++/12.1.0/bits/char_traits.h"
	.file 12 "D:/Env/msys64/mingw64/include/c++/12.1.0/cstdint"
	.file 13 "D:/Env/msys64/mingw64/include/c++/12.1.0/clocale"
	.file 14 "D:/Env/msys64/mingw64/include/c++/12.1.0/debug/debug.h"
	.file 15 "D:/Env/msys64/mingw64/include/c++/12.1.0/cstdlib"
	.file 16 "D:/Env/msys64/mingw64/include/c++/12.1.0/cstdio"
	.file 17 "D:/Env/msys64/mingw64/include/c++/12.1.0/system_error"
	.file 18 "D:/Env/msys64/mingw64/include/c++/12.1.0/bits/ios_base.h"
	.file 19 "D:/Env/msys64/mingw64/include/c++/12.1.0/cwctype"
	.file 20 "D:/Env/msys64/mingw64/include/c++/12.1.0/bits/ostream.tcc"
	.file 21 "D:/Env/msys64/mingw64/include/c++/12.1.0/ostream"
	.file 22 "D:/Env/msys64/mingw64/include/c++/12.1.0/istream"
	.file 23 "D:/Env/msys64/mingw64/include/c++/12.1.0/iosfwd"
	.file 24 "D:/Env/msys64/mingw64/include/c++/12.1.0/bits/std_abs.h"
	.file 25 "D:/Env/msys64/mingw64/include/c++/12.1.0/bits/stl_iterator.h"
	.file 26 "D:/Env/msys64/mingw64/include/c++/12.1.0/bits/istream.tcc"
	.file 27 "D:/Env/msys64/mingw64/include/swprintf.inl"
	.file 28 "D:/Env/msys64/mingw64/include/c++/12.1.0/ext/type_traits.h"
	.file 29 "D:/Env/msys64/mingw64/include/c++/12.1.0/bits/predefined_ops.h"
	.file 30 "D:/Env/msys64/mingw64/include/stdint.h"
	.file 31 "D:/Env/msys64/mingw64/include/stdio.h"
	.file 32 "D:/Env/msys64/mingw64/include/stdlib.h"
	.file 33 "D:/Env/msys64/mingw64/include/process.h"
	.file 34 "D:/Env/msys64/mingw64/include/wctype.h"
	.file 35 "D:/Env/msys64/mingw64/include/c++/12.1.0/stdlib.h"
	.file 36 "D:/Env/msys64/mingw64/include/math.h"
	.file 37 "D:/Env/msys64/mingw64/include/c++/12.1.0/math.h"
	.section	.rdata$.refptr._ZSt3cin, "dr"
	.globl	.refptr._ZSt3cin
	.linkonce	discard
.refptr._ZSt3cin:
	.quad	_ZSt3cin
	.section	.rdata$.refptr._ZSt4endlIcSt11char_traitsIcEERSt13basic_ostreamIT_T0_ES6_, "dr"
	.globl	.refptr._ZSt4endlIcSt11char_traitsIcEERSt13basic_ostreamIT_T0_ES6_
	.linkonce	discard
.refptr._ZSt4endlIcSt11char_traitsIcEERSt13basic_ostreamIT_T0_ES6_:
	.quad	_ZSt4endlIcSt11char_traitsIcEERSt13basic_ostreamIT_T0_ES6_
	.section	.rdata$.refptr._ZSt4cout, "dr"
	.globl	.refptr._ZSt4cout
	.linkonce	discard
.refptr._ZSt4cout:
	.quad	_ZSt4cout
