	.file	"numbaci.c"
	.text
.Ltext0:
	.file 0 "E://Works//Clang//play" "E:/Works/Clang/play/numbaci.c"
	.section	.text$_Z6printfPKcz,"x"
	.linkonce discard
	.globl	_Z6printfPKcz
	.def	_Z6printfPKcz;	.scl	2;	.type	32;	.endef
	.seh_proc	_Z6printfPKcz
_Z6printfPKcz:
.LFB8:
	.file 1 "D:/Env/msys64/mingw64/include/stdio.h"
	.loc 1 369 1
	pushq	%rbp
	.seh_pushreg	%rbp
.LCFI0:
	pushq	%rbx
	.seh_pushreg	%rbx
.LCFI1:
	subq	$56, %rsp
	.seh_stackalloc	56
.LCFI2:
	leaq	48(%rsp), %rbp
	.seh_setframe	%rbp, 48
.LCFI3:
	.seh_endprologue
	movq	%rcx, 32(%rbp)
	movq	%rdx, 40(%rbp)
	movq	%r8, 48(%rbp)
	movq	%r9, 56(%rbp)
	.loc 1 371 53
	leaq	40(%rbp), %rax
	movq	%rax, -16(%rbp)
	.loc 1 372 30
	movq	-16(%rbp), %rbx
	movl	$1, %ecx
	movq	__imp___acrt_iob_func(%rip), %rax
	call	*%rax
.LVL0:
	movq	%rax, %rcx
	movq	32(%rbp), %rax
	movq	%rbx, %r8
	movq	%rax, %rdx
	call	__mingw_vfprintf
	movl	%eax, -4(%rbp)
	.loc 1 374 10
	movl	-4(%rbp), %eax
	.loc 1 375 1
	addq	$56, %rsp
	popq	%rbx
.LCFI4:
	popq	%rbp
.LCFI5:
	ret
.LFE8:
	.seh_endproc
	.def	__main;	.scl	2;	.type	32;	.endef
	.section .rdata,"dr"
.LC0:
	.ascii "%d,%c\0"
	.text
	.globl	main
	.def	main;	.scl	2;	.type	32;	.endef
	.seh_proc	main
main:
.LFB44:
	.file 2 "E:/Works/Clang/play/numbaci.c"
	.loc 2 4 1
	pushq	%rbp
	.seh_pushreg	%rbp
.LCFI6:
	movq	%rsp, %rbp
	.seh_setframe	%rbp, 0
.LCFI7:
	subq	$32, %rsp
	.seh_stackalloc	32
	.seh_endprologue
	movl	%ecx, 16(%rbp)
	movq	%rdx, 24(%rbp)
	.loc 2 4 1
	call	__main
	.loc 2 5 11
	movl	$48, %r8d
	movl	$48, %edx
	leaq	.LC0(%rip), %rax
	movq	%rax, %rcx
	call	_Z6printfPKcz
	.loc 2 6 12
	movl	$0, %eax
	.loc 2 7 1
	addq	$32, %rsp
	popq	%rbp
.LCFI8:
	ret
.LFE44:
	.seh_endproc
	.section	.debug_frame,"dr"
.Lframe0:
	.long	.LECIE0-.LSCIE0
.LSCIE0:
	.long	0xffffffff
	.byte	0x3
	.ascii "\0"
	.uleb128 0x1
	.sleb128 -8
	.uleb128 0x10
	.byte	0xc
	.uleb128 0x7
	.uleb128 0x8
	.byte	0x90
	.uleb128 0x1
	.align 8
.LECIE0:
.LSFDE0:
	.long	.LEFDE0-.LASFDE0
.LASFDE0:
	.secrel32	.Lframe0
	.quad	.LFB8
	.quad	.LFE8-.LFB8
	.byte	0x4
	.long	.LCFI0-.LFB8
	.byte	0xe
	.uleb128 0x10
	.byte	0x86
	.uleb128 0x2
	.byte	0x4
	.long	.LCFI1-.LCFI0
	.byte	0xe
	.uleb128 0x18
	.byte	0x83
	.uleb128 0x3
	.byte	0x4
	.long	.LCFI2-.LCFI1
	.byte	0xe
	.uleb128 0x50
	.byte	0x4
	.long	.LCFI3-.LCFI2
	.byte	0xc
	.uleb128 0x6
	.uleb128 0x20
	.byte	0x4
	.long	.LCFI4-.LCFI3
	.byte	0xc3
	.byte	0x4
	.long	.LCFI5-.LCFI4
	.byte	0xc6
	.byte	0x12
	.uleb128 0x7
	.sleb128 5
	.align 8
.LEFDE0:
.LSFDE2:
	.long	.LEFDE2-.LASFDE2
.LASFDE2:
	.secrel32	.Lframe0
	.quad	.LFB44
	.quad	.LFE44-.LFB44
	.byte	0x4
	.long	.LCFI6-.LFB44
	.byte	0xe
	.uleb128 0x10
	.byte	0x86
	.uleb128 0x2
	.byte	0x4
	.long	.LCFI7-.LCFI6
	.byte	0xd
	.uleb128 0x6
	.byte	0x4
	.long	.LCFI8-.LCFI7
	.byte	0xc6
	.byte	0xc
	.uleb128 0x7
	.uleb128 0x8
	.align 8
.LEFDE2:
	.text
.Letext0:
	.file 3 "D:/Env/msys64/mingw64/include/vadefs.h"