	.file	"3.2.c"
	.text
.Ltext0:
	.file 0 "E://Works//Clang//InClass//Class1" "E:/Works/Clang/InClass/Class1/3.2.c"
	.section	.text$_Z5scanfPKcz,"x"
	.linkonce discard
	.globl	_Z5scanfPKcz
	.def	_Z5scanfPKcz;	.scl	2;	.type	32;	.endef
	.seh_proc	_Z5scanfPKcz
_Z5scanfPKcz:
.LFB2:
	.file 1 "D:/Env/msys64/mingw64/include/stdio.h"
	.loc 1 302 1
	pushq	%rbp
	.seh_pushreg	%rbp
.LCFI0:
	pushq	%rbx
	.seh_pushreg	%rbx
.LCFI1:
	subq	$56, %rsp
	.seh_stackalloc	56
.LCFI2:
	leaq	48(%rsp), %rbp
	.seh_setframe	%rbp, 48
.LCFI3:
	.seh_endprologue
	movq	%rcx, 32(%rbp)
	movq	%rdx, 40(%rbp)
	movq	%r8, 48(%rbp)
	movq	%r9, 56(%rbp)
	.loc 1 304 53
	leaq	40(%rbp), %rax
	movq	%rax, -16(%rbp)
	.loc 1 305 29
	movq	-16(%rbp), %rbx
	movl	$0, %ecx
	movq	__imp___acrt_iob_func(%rip), %rax
	call	*%rax
.LVL0:
	movq	%rax, %rcx
	movq	32(%rbp), %rax
	movq	%rbx, %r8
	movq	%rax, %rdx
	call	__mingw_vfscanf
	movl	%eax, -4(%rbp)
	.loc 1 307 10
	movl	-4(%rbp), %eax
	.loc 1 308 1
	addq	$56, %rsp
	popq	%rbx
.LCFI4:
	popq	%rbp
.LCFI5:
	ret
.LFE2:
	.seh_endproc
	.section	.text$_Z6printfPKcz,"x"
	.linkonce discard
	.globl	_Z6printfPKcz
	.def	_Z6printfPKcz;	.scl	2;	.type	32;	.endef
	.seh_proc	_Z6printfPKcz
_Z6printfPKcz:
.LFB8:
	.loc 1 369 1
	pushq	%rbp
	.seh_pushreg	%rbp
.LCFI6:
	pushq	%rbx
	.seh_pushreg	%rbx
.LCFI7:
	subq	$56, %rsp
	.seh_stackalloc	56
.LCFI8:
	leaq	48(%rsp), %rbp
	.seh_setframe	%rbp, 48
.LCFI9:
	.seh_endprologue
	movq	%rcx, 32(%rbp)
	movq	%rdx, 40(%rbp)
	movq	%r8, 48(%rbp)
	movq	%r9, 56(%rbp)
	.loc 1 371 53
	leaq	40(%rbp), %rax
	movq	%rax, -16(%rbp)
	.loc 1 372 30
	movq	-16(%rbp), %rbx
	movl	$1, %ecx
	movq	__imp___acrt_iob_func(%rip), %rax
	call	*%rax
.LVL1:
	movq	%rax, %rcx
	movq	32(%rbp), %rax
	movq	%rbx, %r8
	movq	%rax, %rdx
	call	__mingw_vfprintf
	movl	%eax, -4(%rbp)
	.loc 1 374 10
	movl	-4(%rbp), %eax
	.loc 1 375 1
	addq	$56, %rsp
	popq	%rbx
.LCFI10:
	popq	%rbp
.LCFI11:
	ret
.LFE8:
	.seh_endproc
	.def	__main;	.scl	2;	.type	32;	.endef
	.section .rdata,"dr"
.LC0:
	.ascii "Enter an integer: \0"
.LC1:
	.ascii "%d\0"
.LC2:
	.ascii "%d \346\230\257\346\255\243\346\225\260\0"
.LC3:
	.ascii "%d \346\230\257\351\233\266\0"
.LC4:
	.ascii "%d \346\230\257\350\264\237\346\225\260\0"
	.text
	.globl	main
	.def	main;	.scl	2;	.type	32;	.endef
	.seh_proc	main
main:
.LFB44:
	.file 2 "E:/Works/Clang/InClass/Class1/3.2.c"
	.loc 2 4 1
	pushq	%rbp
	.seh_pushreg	%rbp
.LCFI12:
	movq	%rsp, %rbp
	.seh_setframe	%rbp, 0
.LCFI13:
	subq	$48, %rsp
	.seh_stackalloc	48
	.seh_endprologue
	movl	%ecx, 16(%rbp)
	movq	%rdx, 24(%rbp)
	.loc 2 4 1
	call	__main
	.loc 2 6 11
	leaq	.LC0(%rip), %rax
	movq	%rax, %rcx
	call	_Z6printfPKcz
	.loc 2 7 10
	leaq	-4(%rbp), %rax
	movq	%rax, %rdx
	leaq	.LC1(%rip), %rax
	movq	%rax, %rcx
	call	_Z5scanfPKcz
	.loc 2 8 11
	movl	-4(%rbp), %eax
	.loc 2 8 5
	testl	%eax, %eax
	jle	.L6
	.loc 2 9 15
	movl	-4(%rbp), %eax
	movl	%eax, %edx
	leaq	.LC2(%rip), %rax
	movq	%rax, %rcx
	call	_Z6printfPKcz
	jmp	.L7
.L6:
	.loc 2 10 17
	movl	-4(%rbp), %eax
	.loc 2 10 11
	testl	%eax, %eax
	jne	.L8
	.loc 2 11 15
	movl	-4(%rbp), %eax
	movl	%eax, %edx
	leaq	.LC3(%rip), %rax
	movq	%rax, %rcx
	call	_Z6printfPKcz
	jmp	.L7
.L8:
	.loc 2 13 15
	movl	-4(%rbp), %eax
	movl	%eax, %edx
	leaq	.LC4(%rip), %rax
	movq	%rax, %rcx
	call	_Z6printfPKcz
.L7:
	.loc 2 15 12
	movl	$0, %eax
	.loc 2 16 1
	addq	$48, %rsp
	popq	%rbp
.LCFI14:
	ret
.LFE44:
	.seh_endproc
	.section	.debug_frame,"dr"
.Lframe0:
	.long	.LECIE0-.LSCIE0
.LSCIE0:
	.long	0xffffffff
	.byte	0x3
	.ascii "\0"
	.uleb128 0x1
	.sleb128 -8
	.uleb128 0x10
	.byte	0xc
	.uleb128 0x7
	.uleb128 0x8
	.byte	0x90
	.uleb128 0x1
	.align 8
.LECIE0:
.LSFDE0:
	.long	.LEFDE0-.LASFDE0
.LASFDE0:
	.secrel32	.Lframe0
	.quad	.LFB2
	.quad	.LFE2-.LFB2
	.byte	0x4
	.long	.LCFI0-.LFB2
	.byte	0xe
	.uleb128 0x10
	.byte	0x86
	.uleb128 0x2
	.byte	0x4
	.long	.LCFI1-.LCFI0
	.byte	0xe
	.uleb128 0x18
	.byte	0x83
	.uleb128 0x3
	.byte	0x4
	.long	.LCFI2-.LCFI1
	.byte	0xe
	.uleb128 0x50
	.byte	0x4
	.long	.LCFI3-.LCFI2
	.byte	0xc
	.uleb128 0x6
	.uleb128 0x20
	.byte	0x4
	.long	.LCFI4-.LCFI3
	.byte	0xc3
	.byte	0x4
	.long	.LCFI5-.LCFI4
	.byte	0xc6
	.byte	0x12
	.uleb128 0x7
	.sleb128 5
	.align 8
.LEFDE0:
.LSFDE2:
	.long	.LEFDE2-.LASFDE2
.LASFDE2:
	.secrel32	.Lframe0
	.quad	.LFB8
	.quad	.LFE8-.LFB8
	.byte	0x4
	.long	.LCFI6-.LFB8
	.byte	0xe
	.uleb128 0x10
	.byte	0x86
	.uleb128 0x2
	.byte	0x4
	.long	.LCFI7-.LCFI6
	.byte	0xe
	.uleb128 0x18
	.byte	0x83
	.uleb128 0x3
	.byte	0x4
	.long	.LCFI8-.LCFI7
	.byte	0xe
	.uleb128 0x50
	.byte	0x4
	.long	.LCFI9-.LCFI8
	.byte	0xc
	.uleb128 0x6
	.uleb128 0x20
	.byte	0x4
	.long	.LCFI10-.LCFI9
	.byte	0xc3
	.byte	0x4
	.long	.LCFI11-.LCFI10
	.byte	0xc6
	.byte	0x12
	.uleb128 0x7
	.sleb128 5
	.align 8
.LEFDE2:
.LSFDE4:
	.long	.LEFDE4-.LASFDE4
.LASFDE4:
	.secrel32	.Lframe0
	.quad	.LFB44
	.quad	.LFE44-.LFB44
	.byte	0x4
	.long	.LCFI12-.LFB44
	.byte	0xe
	.uleb128 0x10
	.byte	0x86
	.uleb128 0x2
	.byte	0x4
	.long	.LCFI13-.LCFI12
	.byte	0xd
	.uleb128 0x6
	.byte	0x4
	.long	.LCFI14-.LCFI13
	.byte	0xc6
	.byte	0xc
	.uleb128 0x7
	.uleb128 0x8
	.align 8
.LEFDE4:
	.text
.Letext0:
	.file 3 "D:/Env/msys64/mingw64/include/vadefs.h"