	.file	"2.c"
	.text
.Ltext0:
	.file 0 "E://Works//Clang//2022//Nov//work7" "E:/Works/Clang/2022/Nov/work7/2.c"
	.section	.text$_Z6printfPKcz,"x"
	.linkonce discard
	.globl	_Z6printfPKcz
	.def	_Z6printfPKcz;	.scl	2;	.type	32;	.endef
	.seh_proc	_Z6printfPKcz
_Z6printfPKcz:
.LFB8:
	.file 1 "D:/Env/msys64/mingw64/include/stdio.h"
	.loc 1 369 1
	pushq	%rbp
	.seh_pushreg	%rbp
.LCFI0:
	pushq	%rbx
	.seh_pushreg	%rbx
.LCFI1:
	subq	$56, %rsp
	.seh_stackalloc	56
.LCFI2:
	leaq	48(%rsp), %rbp
	.seh_setframe	%rbp, 48
.LCFI3:
	.seh_endprologue
	movq	%rcx, 32(%rbp)
	movq	%rdx, 40(%rbp)
	movq	%r8, 48(%rbp)
	movq	%r9, 56(%rbp)
	.loc 1 371 53
	leaq	40(%rbp), %rax
	movq	%rax, -16(%rbp)
	.loc 1 372 30
	movq	-16(%rbp), %rbx
	movl	$1, %ecx
	movq	__imp___acrt_iob_func(%rip), %rax
	call	*%rax
.LVL0:
	movq	%rax, %rcx
	movq	32(%rbp), %rax
	movq	%rbx, %r8
	movq	%rax, %rdx
	call	__mingw_vfprintf
	movl	%eax, -4(%rbp)
	.loc 1 374 10
	movl	-4(%rbp), %eax
	.loc 1 375 1
	addq	$56, %rsp
	popq	%rbx
.LCFI4:
	popq	%rbp
.LCFI5:
	ret
.LFE8:
	.seh_endproc
	.def	__main;	.scl	2;	.type	32;	.endef
	.section .rdata,"dr"
.LC0:
	.ascii "Enter string 1: \0"
.LC1:
	.ascii "Enter string 2: \0"
.LC2:
	.ascii "%d\12\0"
.LC3:
	.ascii "%s\12\0"
	.text
	.globl	main
	.def	main;	.scl	2;	.type	32;	.endef
	.seh_proc	main
main:
.LFB44:
	.file 2 "E:/Works/Clang/2022/Nov/work7/2.c"
	.loc 2 9 1
	pushq	%rbp
	.seh_pushreg	%rbp
.LCFI6:
	subq	$256, %rsp
	.seh_stackalloc	256
.LCFI7:
	leaq	128(%rsp), %rbp
	.seh_setframe	%rbp, 128
.LCFI8:
	.seh_endprologue
	movl	%ecx, 144(%rbp)
	movq	%rdx, 152(%rbp)
	.loc 2 9 1
	call	__main
	.loc 2 11 11
	leaq	.LC0(%rip), %rax
	movq	%rax, %rcx
	call	_Z6printfPKcz
	.loc 2 12 9
	leaq	16(%rbp), %rax
	movq	%rax, %rcx
	call	gets
	.loc 2 13 11
	leaq	.LC1(%rip), %rax
	movq	%rax, %rcx
	call	_Z6printfPKcz
	.loc 2 14 9
	leaq	-96(%rbp), %rax
	movq	%rax, %rcx
	call	gets
	.loc 2 15 11
	leaq	-96(%rbp), %rdx
	leaq	16(%rbp), %rax
	movq	%rax, %rcx
	call	_Z10strcomparePcS_
	movl	%eax, %edx
	leaq	.LC2(%rip), %rax
	movq	%rax, %rcx
	call	_Z6printfPKcz
	.loc 2 16 12
	leaq	-96(%rbp), %rdx
	leaq	16(%rbp), %rax
	movq	%rax, %rcx
	call	_Z7strcopyPcS_
	.loc 2 17 11
	leaq	16(%rbp), %rax
	movq	%rax, %rdx
	leaq	.LC3(%rip), %rax
	movq	%rax, %rcx
	call	_Z6printfPKcz
	.loc 2 18 11
	leaq	16(%rbp), %rax
	movq	%rax, %rcx
	call	_Z9strlengthPc
	movl	%eax, %edx
	leaq	.LC2(%rip), %rax
	movq	%rax, %rcx
	call	_Z6printfPKcz
	.loc 2 19 11
	leaq	16(%rbp), %rax
	movq	%rax, %rcx
	call	_Z8strlowerPc
	movq	%rax, %rdx
	leaq	.LC3(%rip), %rax
	movq	%rax, %rcx
	call	_Z6printfPKcz
	.loc 2 20 12
	movl	$0, %eax
	.loc 2 21 1
	addq	$256, %rsp
	popq	%rbp
.LCFI9:
	ret
.LFE44:
	.seh_endproc
	.globl	_Z10strcomparePcS_
	.def	_Z10strcomparePcS_;	.scl	2;	.type	32;	.endef
	.seh_proc	_Z10strcomparePcS_
_Z10strcomparePcS_:
.LFB45:
	.loc 2 23 1
	pushq	%rbp
	.seh_pushreg	%rbp
.LCFI10:
	movq	%rsp, %rbp
	.seh_setframe	%rbp, 0
.LCFI11:
	subq	$48, %rsp
	.seh_stackalloc	48
	.seh_endprologue
	movq	%rcx, 16(%rbp)
	movq	%rdx, 24(%rbp)
	.loc 2 24 23
	movq	16(%rbp), %rax
	movq	%rax, %rcx
	call	_Z9strlengthPc
	movl	%eax, -8(%rbp)
	.loc 2 24 43
	movq	24(%rbp), %rax
	movq	%rax, %rcx
	call	_Z9strlengthPc
	movl	%eax, -12(%rbp)
.LBB2:
	.loc 2 25 5
	movl	-8(%rbp), %eax
	cmpl	-12(%rbp), %eax
	jne	.L6
.LBB3:
.LBB4:
	.loc 2 27 18
	movl	$0, -4(%rbp)
	.loc 2 27 9
	jmp	.L7
.L14:
	.loc 2 29 20
	movl	-4(%rbp), %eax
	movslq	%eax, %rdx
	.loc 2 29 21
	movq	16(%rbp), %rax
	addq	%rdx, %rax
	movzbl	(%rax), %edx
	.loc 2 29 28
	movl	-4(%rbp), %eax
	movslq	%eax, %rcx
	.loc 2 29 29
	movq	24(%rbp), %rax
	addq	%rcx, %rax
	movzbl	(%rax), %eax
	.loc 2 29 13
	cmpb	%al, %dl
	jle	.L8
	.loc 2 31 24
	movl	$1, %eax
	jmp	.L5
.L8:
	.loc 2 33 25
	movl	-4(%rbp), %eax
	movslq	%eax, %rdx
	.loc 2 33 26
	movq	16(%rbp), %rax
	addq	%rdx, %rax
	movzbl	(%rax), %edx
	.loc 2 33 33
	movl	-4(%rbp), %eax
	movslq	%eax, %rcx
	.loc 2 33 34
	movq	24(%rbp), %rax
	addq	%rcx, %rax
	movzbl	(%rax), %eax
	.loc 2 33 18
	cmpb	%al, %dl
	jge	.L10
	.loc 2 35 25
	movl	$-1, %eax
	jmp	.L5
.L10:
	.loc 2 39 29
	movl	-8(%rbp), %eax
	subl	$1, %eax
	.loc 2 39 17
	cmpl	%eax, -4(%rbp)
	je	.L11
	.loc 2 39 44 discriminator 1
	movl	-12(%rbp), %eax
	subl	$1, %eax
	.loc 2 39 33 discriminator 1
	cmpl	%eax, -4(%rbp)
	jne	.L12
.L11:
	.loc 2 41 28
	movl	$0, %eax
	jmp	.L5
.L12:
	.loc 2 27 9 discriminator 2
	addl	$1, -4(%rbp)
.L7:
	.loc 2 27 32 discriminator 1
	movl	-4(%rbp), %eax
	cmpl	-8(%rbp), %eax
	jge	.L13
	.loc 2 27 32 is_stmt 0 discriminator 3
	movl	-4(%rbp), %eax
	cmpl	-12(%rbp), %eax
	jl	.L14
	jmp	.L13
.L6:
.LBE4:
.LBE3:
	.loc 2 45 11 is_stmt 1
	movl	-8(%rbp), %eax
	cmpl	-12(%rbp), %eax
	jle	.L15
	.loc 2 47 16
	movl	$1, %eax
	jmp	.L5
.L15:
	.loc 2 51 17
	movl	$-1, %eax
	jmp	.L5
.L13:
.L5:
.LBE2:
	.loc 2 53 1
	addq	$48, %rsp
	popq	%rbp
.LCFI12:
	ret
.LFE45:
	.seh_endproc
	.globl	_Z7strcopyPcS_
	.def	_Z7strcopyPcS_;	.scl	2;	.type	32;	.endef
	.seh_proc	_Z7strcopyPcS_
_Z7strcopyPcS_:
.LFB46:
	.loc 2 56 1
	pushq	%rbp
	.seh_pushreg	%rbp
.LCFI13:
	pushq	%rsi
	.seh_pushreg	%rsi
.LCFI14:
	pushq	%rbx
	.seh_pushreg	%rbx
.LCFI15:
	subq	$48, %rsp
	.seh_stackalloc	48
.LCFI16:
	leaq	48(%rsp), %rbp
	.seh_setframe	%rbp, 48
.LCFI17:
	.seh_endprologue
	movq	%rcx, 32(%rbp)
	movq	%rdx, 40(%rbp)
.LBB5:
	.loc 2 57 14
	movl	$0, -4(%rbp)
	.loc 2 57 5
	jmp	.L17
.L18:
	.loc 2 59 34 discriminator 3
	movl	-4(%rbp), %eax
	movslq	%eax, %rdx
	.loc 2 59 35 discriminator 3
	movq	40(%rbp), %rax
	addq	%rdx, %rax
	movzbl	(%rax), %ebx
	.loc 2 59 9 discriminator 3
	movq	32(%rbp), %rsi
	.loc 2 59 23 discriminator 3
	movq	32(%rbp), %rax
	movq	%rax, %rcx
	call	_Z9strlengthPc
	.loc 2 59 13 discriminator 3
	movl	-4(%rbp), %edx
	addl	%edx, %eax
	cltq
	.loc 2 59 27 discriminator 3
	addq	%rsi, %rax
	.loc 2 59 29 discriminator 3
	movb	%bl, (%rax)
	.loc 2 57 5 discriminator 3
	addl	$1, -4(%rbp)
.L17:
	.loc 2 57 34 discriminator 1
	movq	40(%rbp), %rax
	movq	%rax, %rcx
	call	_Z9strlengthPc
	.loc 2 57 23 discriminator 1
	cmpl	%eax, -4(%rbp)
	setl	%al
	testb	%al, %al
	jne	.L18
.LBE5:
	.loc 2 61 1
	nop
	nop
	addq	$48, %rsp
	popq	%rbx
.LCFI18:
	popq	%rsi
.LCFI19:
	popq	%rbp
.LCFI20:
	ret
.LFE46:
	.seh_endproc
	.globl	_Z9strlengthPc
	.def	_Z9strlengthPc;	.scl	2;	.type	32;	.endef
	.seh_proc	_Z9strlengthPc
_Z9strlengthPc:
.LFB47:
	.loc 2 64 1
	pushq	%rbp
	.seh_pushreg	%rbp
.LCFI21:
	movq	%rsp, %rbp
	.seh_setframe	%rbp, 0
.LCFI22:
	subq	$16, %rsp
	.seh_stackalloc	16
	.seh_endprologue
	movq	%rcx, 16(%rbp)
	.loc 2 65 9
	movl	$0, -4(%rbp)
	.loc 2 66 5
	jmp	.L20
.L21:
	.loc 2 68 10
	addl	$1, -4(%rbp)
.L20:
	.loc 2 66 14
	movl	-4(%rbp), %eax
	movslq	%eax, %rdx
	.loc 2 66 15
	movq	16(%rbp), %rax
	addq	%rdx, %rax
	movzbl	(%rax), %eax
	.loc 2 66 17
	testb	%al, %al
	jne	.L21
	.loc 2 70 12
	movl	-4(%rbp), %eax
	.loc 2 71 1
	addq	$16, %rsp
	popq	%rbp
.LCFI23:
	ret
.LFE47:
	.seh_endproc
	.globl	_Z8strlowerPc
	.def	_Z8strlowerPc;	.scl	2;	.type	32;	.endef
	.seh_proc	_Z8strlowerPc
_Z8strlowerPc:
.LFB48:
	.loc 2 74 1
	pushq	%rbp
	.seh_pushreg	%rbp
.LCFI24:
	movq	%rsp, %rbp
	.seh_setframe	%rbp, 0
.LCFI25:
	subq	$48, %rsp
	.seh_stackalloc	48
	.seh_endprologue
	movq	%rcx, 16(%rbp)
.LBB6:
	.loc 2 75 14
	movl	$0, -4(%rbp)
	.loc 2 75 5
	jmp	.L24
.L26:
	.loc 2 77 15
	movl	-4(%rbp), %eax
	movslq	%eax, %rdx
	.loc 2 77 16
	movq	16(%rbp), %rax
	addq	%rdx, %rax
	movzbl	(%rax), %eax
	.loc 2 77 9
	cmpb	$64, %al
	jle	.L25
	.loc 2 77 30 discriminator 1
	movl	-4(%rbp), %eax
	movslq	%eax, %rdx
	.loc 2 77 31 discriminator 1
	movq	16(%rbp), %rax
	addq	%rdx, %rax
	movzbl	(%rax), %eax
	.loc 2 77 25 discriminator 1
	cmpb	$90, %al
	jg	.L25
	.loc 2 79 22
	movl	-4(%rbp), %eax
	movslq	%eax, %rdx
	.loc 2 79 23
	movq	16(%rbp), %rax
	addq	%rdx, %rax
	movzbl	(%rax), %eax
	.loc 2 79 25
	leal	32(%rax), %ecx
	.loc 2 79 15
	movl	-4(%rbp), %eax
	movslq	%eax, %rdx
	.loc 2 79 16
	movq	16(%rbp), %rax
	addq	%rdx, %rax
	.loc 2 79 25
	movl	%ecx, %edx
	.loc 2 79 18
	movb	%dl, (%rax)
.L25:
	.loc 2 75 5 discriminator 2
	addl	$1, -4(%rbp)
.L24:
	.loc 2 75 34 discriminator 1
	movq	16(%rbp), %rax
	movq	%rax, %rcx
	call	_Z9strlengthPc
	.loc 2 75 23 discriminator 1
	cmpl	%eax, -4(%rbp)
	setl	%al
	testb	%al, %al
	jne	.L26
.LBE6:
	.loc 2 82 12
	movq	16(%rbp), %rax
	.loc 2 83 1
	addq	$48, %rsp
	popq	%rbp
.LCFI26:
	ret
.LFE48:
	.seh_endproc
	.section	.debug_frame,"dr"
.Lframe0:
	.long	.LECIE0-.LSCIE0
.LSCIE0:
	.long	0xffffffff
	.byte	0x3
	.ascii "\0"
	.uleb128 0x1
	.sleb128 -8
	.uleb128 0x10
	.byte	0xc
	.uleb128 0x7
	.uleb128 0x8
	.byte	0x90
	.uleb128 0x1
	.align 8
.LECIE0:
.LSFDE0:
	.long	.LEFDE0-.LASFDE0
.LASFDE0:
	.secrel32	.Lframe0
	.quad	.LFB8
	.quad	.LFE8-.LFB8
	.byte	0x4
	.long	.LCFI0-.LFB8
	.byte	0xe
	.uleb128 0x10
	.byte	0x86
	.uleb128 0x2
	.byte	0x4
	.long	.LCFI1-.LCFI0
	.byte	0xe
	.uleb128 0x18
	.byte	0x83
	.uleb128 0x3
	.byte	0x4
	.long	.LCFI2-.LCFI1
	.byte	0xe
	.uleb128 0x50
	.byte	0x4
	.long	.LCFI3-.LCFI2
	.byte	0xc
	.uleb128 0x6
	.uleb128 0x20
	.byte	0x4
	.long	.LCFI4-.LCFI3
	.byte	0xc3
	.byte	0x4
	.long	.LCFI5-.LCFI4
	.byte	0xc6
	.byte	0x12
	.uleb128 0x7
	.sleb128 5
	.align 8
.LEFDE0:
.LSFDE2:
	.long	.LEFDE2-.LASFDE2
.LASFDE2:
	.secrel32	.Lframe0
	.quad	.LFB44
	.quad	.LFE44-.LFB44
	.byte	0x4
	.long	.LCFI6-.LFB44
	.byte	0xe
	.uleb128 0x10
	.byte	0x86
	.uleb128 0x2
	.byte	0x4
	.long	.LCFI7-.LCFI6
	.byte	0xe
	.uleb128 0x110
	.byte	0x4
	.long	.LCFI8-.LCFI7
	.byte	0xc
	.uleb128 0x6
	.uleb128 0x90
	.byte	0x4
	.long	.LCFI9-.LCFI8
	.byte	0xc6
	.byte	0x12
	.uleb128 0x7
	.sleb128 31
	.align 8
.LEFDE2:
.LSFDE4:
	.long	.LEFDE4-.LASFDE4
.LASFDE4:
	.secrel32	.Lframe0
	.quad	.LFB45
	.quad	.LFE45-.LFB45
	.byte	0x4
	.long	.LCFI10-.LFB45
	.byte	0xe
	.uleb128 0x10
	.byte	0x86
	.uleb128 0x2
	.byte	0x4
	.long	.LCFI11-.LCFI10
	.byte	0xd
	.uleb128 0x6
	.byte	0x4
	.long	.LCFI12-.LCFI11
	.byte	0xc6
	.byte	0xc
	.uleb128 0x7
	.uleb128 0x8
	.align 8
.LEFDE4:
.LSFDE6:
	.long	.LEFDE6-.LASFDE6
.LASFDE6:
	.secrel32	.Lframe0
	.quad	.LFB46
	.quad	.LFE46-.LFB46
	.byte	0x4
	.long	.LCFI13-.LFB46
	.byte	0xe
	.uleb128 0x10
	.byte	0x86
	.uleb128 0x2
	.byte	0x4
	.long	.LCFI14-.LCFI13
	.byte	0xe
	.uleb128 0x18
	.byte	0x84
	.uleb128 0x3
	.byte	0x4
	.long	.LCFI15-.LCFI14
	.byte	0xe
	.uleb128 0x20
	.byte	0x83
	.uleb128 0x4
	.byte	0x4
	.long	.LCFI16-.LCFI15
	.byte	0xe
	.uleb128 0x50
	.byte	0x4
	.long	.LCFI17-.LCFI16
	.byte	0xc
	.uleb128 0x6
	.uleb128 0x20
	.byte	0x4
	.long	.LCFI18-.LCFI17
	.byte	0xc3
	.byte	0x4
	.long	.LCFI19-.LCFI18
	.byte	0xc4
	.byte	0x4
	.long	.LCFI20-.LCFI19
	.byte	0xc6
	.byte	0x12
	.uleb128 0x7
	.sleb128 3
	.align 8
.LEFDE6:
.LSFDE8:
	.long	.LEFDE8-.LASFDE8
.LASFDE8:
	.secrel32	.Lframe0
	.quad	.LFB47
	.quad	.LFE47-.LFB47
	.byte	0x4
	.long	.LCFI21-.LFB47
	.byte	0xe
	.uleb128 0x10
	.byte	0x86
	.uleb128 0x2
	.byte	0x4
	.long	.LCFI22-.LCFI21
	.byte	0xd
	.uleb128 0x6
	.byte	0x4
	.long	.LCFI23-.LCFI22
	.byte	0xc6
	.byte	0xc
	.uleb128 0x7
	.uleb128 0x8
	.align 8
.LEFDE8:
.LSFDE10:
	.long	.LEFDE10-.LASFDE10
.LASFDE10:
	.secrel32	.Lframe0
	.quad	.LFB48
	.quad	.LFE48-.LFB48
	.byte	0x4
	.long	.LCFI24-.LFB48
	.byte	0xe
	.uleb128 0x10
	.byte	0x86
	.uleb128 0x2
	.byte	0x4
	.long	.LCFI25-.LCFI24
	.byte	0xd
	.uleb128 0x6
	.byte	0x4
	.long	.LCFI26-.LCFI25
	.byte	0xc6
	.byte	0xc
	.uleb128 0x7
	.uleb128 0x8
	.align 8
.LEFDE10:
	.text
.Letext0:
	.file 3 "D:/Env/msys64/mingw64/include/vadefs.h"