	.file	"cvcv.cpp"
	.text
.Ltext0:
	.file 0 "E://Works//Udemy//CppPrimary//COP//namespace" "E:/Works/Udemy/CppPrimary/COP/namespace/cvcv.cpp"
	.def	_ZL6printfPKcz;	.scl	3;	.type	32;	.endef
	.seh_proc	_ZL6printfPKcz
_ZL6printfPKcz:
.LFB223:
	.file 1 "D:/Env/msys64/mingw64/include/stdio.h"
	.loc 1 369 1
	pushq	%rbp
	.seh_pushreg	%rbp
.LCFI0:
	pushq	%rbx
	.seh_pushreg	%rbx
.LCFI1:
	subq	$56, %rsp
	.seh_stackalloc	56
.LCFI2:
	leaq	48(%rsp), %rbp
	.seh_setframe	%rbp, 48
.LCFI3:
	.seh_endprologue
	movq	%rcx, 32(%rbp)
	movq	%rdx, 40(%rbp)
	movq	%r8, 48(%rbp)
	movq	%r9, 56(%rbp)
	.loc 1 371 53
	leaq	40(%rbp), %rax
	movq	%rax, -16(%rbp)
	.loc 1 372 30
	movq	-16(%rbp), %rbx
	movl	$1, %ecx
	movq	__imp___acrt_iob_func(%rip), %rax
	call	*%rax
.LVL0:
	movq	%rax, %rcx
	movq	32(%rbp), %rax
	movq	%rbx, %r8
	movq	%rax, %rdx
	call	__mingw_vfprintf
	movl	%eax, -4(%rbp)
	.loc 1 374 10
	movl	-4(%rbp), %eax
	.loc 1 375 1
	addq	$56, %rsp
	popq	%rbx
.LCFI4:
	popq	%rbp
.LCFI5:
	ret
.LFE223:
	.seh_endproc
.lcomm _ZStL8__ioinit,1,1
	.def	__main;	.scl	2;	.type	32;	.endef
	.section .rdata,"dr"
.LC0:
	.ascii "Hello, world!\0"
	.text
	.globl	main
	.def	main;	.scl	2;	.type	32;	.endef
	.seh_proc	main
main:
.LFB1839:
	.file 2 "E:/Works/Udemy/CppPrimary/COP/namespace/cvcv.cpp"
	.loc 2 14 1
	pushq	%rbp
	.seh_pushreg	%rbp
.LCFI6:
	movq	%rsp, %rbp
	.seh_setframe	%rbp, 0
.LCFI7:
	subq	$32, %rsp
	.seh_stackalloc	32
	.seh_endprologue
	movl	%ecx, 16(%rbp)
	movq	%rdx, 24(%rbp)
	.loc 2 14 1
	call	__main
	.loc 2 15 16
	leaq	.LC0(%rip), %rax
	movq	%rax, %rcx
	call	_ZL6printfPKcz
	.loc 2 16 12
	movl	$0, %eax
	.loc 2 17 1
	addq	$32, %rsp
	popq	%rbp
.LCFI8:
	ret
.LFE1839:
	.seh_endproc
	.def	__tcf_0;	.scl	3;	.type	32;	.endef
	.seh_proc	__tcf_0
__tcf_0:
.LFB2364:
	.file 3 "D:/Env/msys64/mingw64/include/c++/12.1.0/iostream"
	.loc 3 74 25
	pushq	%rbp
	.seh_pushreg	%rbp
.LCFI9:
	movq	%rsp, %rbp
	.seh_setframe	%rbp, 0
.LCFI10:
	subq	$32, %rsp
	.seh_stackalloc	32
	.seh_endprologue
	.loc 3 74 25
	leaq	_ZStL8__ioinit(%rip), %rax
	movq	%rax, %rcx
	call	_ZNSt8ios_base4InitD1Ev
	nop
	addq	$32, %rsp
	popq	%rbp
.LCFI11:
	ret
.LFE2364:
	.seh_endproc
	.def	_Z41__static_initialization_and_destruction_0ii;	.scl	3;	.type	32;	.endef
	.seh_proc	_Z41__static_initialization_and_destruction_0ii
_Z41__static_initialization_and_destruction_0ii:
.LFB2363:
	.loc 2 17 1
	pushq	%rbp
	.seh_pushreg	%rbp
.LCFI12:
	movq	%rsp, %rbp
	.seh_setframe	%rbp, 0
.LCFI13:
	subq	$32, %rsp
	.seh_stackalloc	32
	.seh_endprologue
	movl	%ecx, 16(%rbp)
	movl	%edx, 24(%rbp)
	.loc 2 17 1
	cmpl	$1, 16(%rbp)
	jne	.L8
	.loc 2 17 1 is_stmt 0 discriminator 1
	cmpl	$65535, 24(%rbp)
	jne	.L8
	.loc 3 74 25 is_stmt 1
	leaq	_ZStL8__ioinit(%rip), %rax
	movq	%rax, %rcx
	call	_ZNSt8ios_base4InitC1Ev
	leaq	__tcf_0(%rip), %rax
	movq	%rax, %rcx
	call	atexit
.L8:
	.loc 2 17 1
	nop
	addq	$32, %rsp
	popq	%rbp
.LCFI14:
	ret
.LFE2363:
	.seh_endproc
	.def	_GLOBAL__sub_I_main;	.scl	3;	.type	32;	.endef
	.seh_proc	_GLOBAL__sub_I_main
_GLOBAL__sub_I_main:
.LFB2365:
	.loc 2 17 1
	pushq	%rbp
	.seh_pushreg	%rbp
.LCFI15:
	movq	%rsp, %rbp
	.seh_setframe	%rbp, 0
.LCFI16:
	subq	$32, %rsp
	.seh_stackalloc	32
	.seh_endprologue
	.loc 2 17 1
	movl	$65535, %edx
	movl	$1, %ecx
	call	_Z41__static_initialization_and_destruction_0ii
	nop
	addq	$32, %rsp
	popq	%rbp
.LCFI17:
	ret
.LFE2365:
	.seh_endproc
	.section	.ctors,"w"
	.align 8
	.quad	_GLOBAL__sub_I_main
	.section	.debug_frame,"dr"
.Lframe0:
	.long	.LECIE0-.LSCIE0
.LSCIE0:
	.long	0xffffffff
	.byte	0x3
	.ascii "\0"
	.uleb128 0x1
	.sleb128 -8
	.uleb128 0x10
	.byte	0xc
	.uleb128 0x7
	.uleb128 0x8
	.byte	0x90
	.uleb128 0x1
	.align 8
.LECIE0:
.LSFDE0:
	.long	.LEFDE0-.LASFDE0
.LASFDE0:
	.secrel32	.Lframe0
	.quad	.LFB223
	.quad	.LFE223-.LFB223
	.byte	0x4
	.long	.LCFI0-.LFB223
	.byte	0xe
	.uleb128 0x10
	.byte	0x86
	.uleb128 0x2
	.byte	0x4
	.long	.LCFI1-.LCFI0
	.byte	0xe
	.uleb128 0x18
	.byte	0x83
	.uleb128 0x3
	.byte	0x4
	.long	.LCFI2-.LCFI1
	.byte	0xe
	.uleb128 0x50
	.byte	0x4
	.long	.LCFI3-.LCFI2
	.byte	0xc
	.uleb128 0x6
	.uleb128 0x20
	.byte	0x4
	.long	.LCFI4-.LCFI3
	.byte	0xc3
	.byte	0x4
	.long	.LCFI5-.LCFI4
	.byte	0xc6
	.byte	0x12
	.uleb128 0x7
	.sleb128 5
	.align 8
.LEFDE0:
.LSFDE2:
	.long	.LEFDE2-.LASFDE2
.LASFDE2:
	.secrel32	.Lframe0
	.quad	.LFB1839
	.quad	.LFE1839-.LFB1839
	.byte	0x4
	.long	.LCFI6-.LFB1839
	.byte	0xe
	.uleb128 0x10
	.byte	0x86
	.uleb128 0x2
	.byte	0x4
	.long	.LCFI7-.LCFI6
	.byte	0xd
	.uleb128 0x6
	.byte	0x4
	.long	.LCFI8-.LCFI7
	.byte	0xc6
	.byte	0xc
	.uleb128 0x7
	.uleb128 0x8
	.align 8
.LEFDE2:
.LSFDE4:
	.long	.LEFDE4-.LASFDE4
.LASFDE4:
	.secrel32	.Lframe0
	.quad	.LFB2364
	.quad	.LFE2364-.LFB2364
	.byte	0x4
	.long	.LCFI9-.LFB2364
	.byte	0xe
	.uleb128 0x10
	.byte	0x86
	.uleb128 0x2
	.byte	0x4
	.long	.LCFI10-.LCFI9
	.byte	0xd
	.uleb128 0x6
	.byte	0x4
	.long	.LCFI11-.LCFI10
	.byte	0xc6
	.byte	0xc
	.uleb128 0x7
	.uleb128 0x8
	.align 8
.LEFDE4:
.LSFDE6:
	.long	.LEFDE6-.LASFDE6
.LASFDE6:
	.secrel32	.Lframe0
	.quad	.LFB2363
	.quad	.LFE2363-.LFB2363
	.byte	0x4
	.long	.LCFI12-.LFB2363
	.byte	0xe
	.uleb128 0x10
	.byte	0x86
	.uleb128 0x2
	.byte	0x4
	.long	.LCFI13-.LCFI12
	.byte	0xd
	.uleb128 0x6
	.byte	0x4
	.long	.LCFI14-.LCFI13
	.byte	0xc6
	.byte	0xc
	.uleb128 0x7
	.uleb128 0x8
	.align 8
.LEFDE6:
.LSFDE8:
	.long	.LEFDE8-.LASFDE8
.LASFDE8:
	.secrel32	.Lframe0
	.quad	.LFB2365
	.quad	.LFE2365-.LFB2365
	.byte	0x4
	.long	.LCFI15-.LFB2365
	.byte	0xe
	.uleb128 0x10
	.byte	0x86
	.uleb128 0x2
	.byte	0x4
	.long	.LCFI16-.LCFI15
	.byte	0xd
	.uleb128 0x6
	.byte	0x4
	.long	.LCFI17-.LCFI16
	.byte	0xc6
	.byte	0xc
	.uleb128 0x7
	.uleb128 0x8
	.align 8
.LEFDE8:
	.text
.Letext0:
	.file 4 "D:/Env/msys64/mingw64/include/vadefs.h"
	.file 5 "D:/Env/msys64/mingw64/include/corecrt.h"
	.file 6 "D:/Env/msys64/mingw64/include/locale.h"
	.file 7 "D:/Env/msys64/mingw64/include/wchar.h"
	.file 8 "D:/Env/msys64/mingw64/include/c++/12.1.0/cwchar"
	.file 9 "D:/Env/msys64/mingw64/include/c++/12.1.0/type_traits"
	.file 10 "D:/Env/msys64/mingw64/include/c++/12.1.0/x86_64-w64-mingw32/bits/c++config.h"
	.file 11 "D:/Env/msys64/mingw64/include/c++/12.1.0/bits/exception_ptr.h"
	.file 12 "D:/Env/msys64/mingw64/include/c++/12.1.0/cstdint"
	.file 13 "D:/Env/msys64/mingw64/include/c++/12.1.0/clocale"
	.file 14 "D:/Env/msys64/mingw64/include/c++/12.1.0/debug/debug.h"
	.file 15 "D:/Env/msys64/mingw64/include/c++/12.1.0/cstdlib"
	.file 16 "D:/Env/msys64/mingw64/include/c++/12.1.0/cstdio"
	.file 17 "D:/Env/msys64/mingw64/include/c++/12.1.0/system_error"
	.file 18 "D:/Env/msys64/mingw64/include/c++/12.1.0/bits/ios_base.h"
	.file 19 "D:/Env/msys64/mingw64/include/c++/12.1.0/cwctype"
	.file 20 "D:/Env/msys64/mingw64/include/swprintf.inl"
	.file 21 "D:/Env/msys64/mingw64/include/c++/12.1.0/bits/predefined_ops.h"
	.file 22 "D:/Env/msys64/mingw64/include/stdint.h"
	.file 23 "D:/Env/msys64/mingw64/include/stdlib.h"
	.file 24 "D:/Env/msys64/mingw64/include/process.h"
	.file 25 "D:/Env/msys64/mingw64/include/wctype.h"