	.file	"2.c"
	.text
.Ltext0:
	.file 0 "E://Works//Clang//2022//Nov//work9//2" "E:/Works/Clang/2022/Nov/work9/2/2.c"
	.section	.text$_Z6fscanfP6_iobufPKcz,"x"
	.linkonce discard
	.globl	_Z6fscanfP6_iobufPKcz
	.def	_Z6fscanfP6_iobufPKcz;	.scl	2;	.type	32;	.endef
	.seh_proc	_Z6fscanfP6_iobufPKcz
_Z6fscanfP6_iobufPKcz:
.LFB3:
	.file 1 "D:/Env/msys64/mingw64/include/stdio.h"
	.loc 1 313 1
	pushq	%rbp
	.seh_pushreg	%rbp
.LCFI0:
	movq	%rsp, %rbp
	.seh_setframe	%rbp, 0
.LCFI1:
	subq	$48, %rsp
	.seh_stackalloc	48
	.seh_endprologue
	movq	%rcx, 16(%rbp)
	movq	%rdx, 24(%rbp)
	movq	%r8, 32(%rbp)
	movq	%r9, 40(%rbp)
	.loc 1 315 53
	leaq	32(%rbp), %rax
	movq	%rax, -16(%rbp)
	.loc 1 316 29
	movq	-16(%rbp), %rcx
	movq	24(%rbp), %rdx
	movq	16(%rbp), %rax
	movq	%rcx, %r8
	movq	%rax, %rcx
	call	__mingw_vfscanf
	movl	%eax, -4(%rbp)
	.loc 1 318 10
	movl	-4(%rbp), %eax
	.loc 1 319 1
	addq	$48, %rsp
	popq	%rbp
.LCFI2:
	ret
.LFE3:
	.seh_endproc
	.section	.text$_Z6printfPKcz,"x"
	.linkonce discard
	.globl	_Z6printfPKcz
	.def	_Z6printfPKcz;	.scl	2;	.type	32;	.endef
	.seh_proc	_Z6printfPKcz
_Z6printfPKcz:
.LFB8:
	.loc 1 369 1
	pushq	%rbp
	.seh_pushreg	%rbp
.LCFI3:
	pushq	%rbx
	.seh_pushreg	%rbx
.LCFI4:
	subq	$56, %rsp
	.seh_stackalloc	56
.LCFI5:
	leaq	48(%rsp), %rbp
	.seh_setframe	%rbp, 48
.LCFI6:
	.seh_endprologue
	movq	%rcx, 32(%rbp)
	movq	%rdx, 40(%rbp)
	movq	%r8, 48(%rbp)
	movq	%r9, 56(%rbp)
	.loc 1 371 53
	leaq	40(%rbp), %rax
	movq	%rax, -16(%rbp)
	.loc 1 372 30
	movq	-16(%rbp), %rbx
	movl	$1, %ecx
	movq	__imp___acrt_iob_func(%rip), %rax
	call	*%rax
.LVL0:
	movq	%rax, %rcx
	movq	32(%rbp), %rax
	movq	%rbx, %r8
	movq	%rax, %rdx
	call	__mingw_vfprintf
	movl	%eax, -4(%rbp)
	.loc 1 374 10
	movl	-4(%rbp), %eax
	.loc 1 375 1
	addq	$56, %rsp
	popq	%rbx
.LCFI7:
	popq	%rbp
.LCFI8:
	ret
.LFE8:
	.seh_endproc
	.text
	.globl	_Z4sortPii
	.def	_Z4sortPii;	.scl	2;	.type	32;	.endef
	.seh_proc	_Z4sortPii
_Z4sortPii:
.LFB44:
	.file 2 "E:/Works/Clang/2022/Nov/work9/2/2.c"
	.loc 2 4 1
	pushq	%rbp
	.seh_pushreg	%rbp
.LCFI9:
	movq	%rsp, %rbp
	.seh_setframe	%rbp, 0
.LCFI10:
	subq	$16, %rsp
	.seh_stackalloc	16
	.seh_endprologue
	movq	%rcx, 16(%rbp)
	movl	%edx, 24(%rbp)
	.loc 2 6 12
	movl	$0, -4(%rbp)
	.loc 2 6 5
	jmp	.L6
.L10:
	.loc 2 8 16
	movl	-4(%rbp), %eax
	addl	$1, %eax
	movl	%eax, -8(%rbp)
	.loc 2 8 9
	jmp	.L7
.L9:
	.loc 2 10 19
	movl	-4(%rbp), %eax
	cltq
	.loc 2 10 20
	leaq	0(,%rax,4), %rdx
	movq	16(%rbp), %rax
	addq	%rdx, %rax
	movl	(%rax), %edx
	.loc 2 10 26
	movl	-8(%rbp), %eax
	cltq
	.loc 2 10 27
	leaq	0(,%rax,4), %rcx
	movq	16(%rbp), %rax
	addq	%rcx, %rax
	movl	(%rax), %eax
	.loc 2 10 13
	cmpl	%eax, %edx
	jle	.L8
	.loc 2 12 26
	movl	-4(%rbp), %eax
	cltq
	.loc 2 12 27
	leaq	0(,%rax,4), %rdx
	movq	16(%rbp), %rax
	addq	%rdx, %rax
	.loc 2 12 22
	movl	(%rax), %eax
	movl	%eax, -12(%rbp)
	.loc 2 13 26
	movl	-8(%rbp), %eax
	cltq
	.loc 2 13 27
	leaq	0(,%rax,4), %rdx
	movq	16(%rbp), %rax
	addq	%rdx, %rax
	.loc 2 13 19
	movl	-4(%rbp), %edx
	movslq	%edx, %rdx
	.loc 2 13 20
	leaq	0(,%rdx,4), %rcx
	movq	16(%rbp), %rdx
	addq	%rcx, %rdx
	.loc 2 13 27
	movl	(%rax), %eax
	.loc 2 13 22
	movl	%eax, (%rdx)
	.loc 2 14 19
	movl	-8(%rbp), %eax
	cltq
	.loc 2 14 20
	leaq	0(,%rax,4), %rdx
	movq	16(%rbp), %rax
	addq	%rax, %rdx
	.loc 2 14 22
	movl	-12(%rbp), %eax
	movl	%eax, (%rdx)
.L8:
	.loc 2 8 9 discriminator 2
	addl	$1, -8(%rbp)
.L7:
	.loc 2 8 27 discriminator 1
	movl	-8(%rbp), %eax
	cmpl	24(%rbp), %eax
	jl	.L9
	.loc 2 6 5 discriminator 2
	addl	$1, -4(%rbp)
.L6:
	.loc 2 6 19 discriminator 1
	movl	-4(%rbp), %eax
	cmpl	24(%rbp), %eax
	jl	.L10
	.loc 2 18 1
	nop
	nop
	addq	$16, %rsp
	popq	%rbp
.LCFI11:
	ret
.LFE44:
	.seh_endproc
	.section .rdata,"dr"
.LC0:
	.ascii "%d \0"
.LC1:
	.ascii "\12\0"
	.text
	.globl	_Z7print_aPii
	.def	_Z7print_aPii;	.scl	2;	.type	32;	.endef
	.seh_proc	_Z7print_aPii
_Z7print_aPii:
.LFB45:
	.loc 2 20 1
	pushq	%rbp
	.seh_pushreg	%rbp
.LCFI12:
	movq	%rsp, %rbp
	.seh_setframe	%rbp, 0
.LCFI13:
	subq	$48, %rsp
	.seh_stackalloc	48
	.seh_endprologue
	movq	%rcx, 16(%rbp)
	movl	%edx, 24(%rbp)
	.loc 2 22 12
	movl	$0, -4(%rbp)
	.loc 2 22 5
	jmp	.L12
.L13:
	.loc 2 24 25 discriminator 3
	movl	-4(%rbp), %eax
	cltq
	.loc 2 24 26 discriminator 3
	leaq	0(,%rax,4), %rdx
	movq	16(%rbp), %rax
	addq	%rdx, %rax
	.loc 2 24 15 discriminator 3
	movl	(%rax), %eax
	movl	%eax, %edx
	leaq	.LC0(%rip), %rax
	movq	%rax, %rcx
	call	_Z6printfPKcz
	.loc 2 22 5 discriminator 3
	addl	$1, -4(%rbp)
.L12:
	.loc 2 22 19 discriminator 1
	movl	-4(%rbp), %eax
	cmpl	24(%rbp), %eax
	jl	.L13
	.loc 2 26 11
	leaq	.LC1(%rip), %rax
	movq	%rax, %rcx
	call	_Z6printfPKcz
	.loc 2 27 1
	nop
	addq	$48, %rsp
	popq	%rbp
.LCFI14:
	ret
.LFE45:
	.seh_endproc
	.def	__main;	.scl	2;	.type	32;	.endef
	.section .rdata,"dr"
.LC2:
	.ascii "r\0"
.LC3:
	.ascii "./scores.txt\0"
.LC4:
	.ascii "%d\0"
.LC5:
	.ascii "before sorting\12\0"
.LC6:
	.ascii "%2d \0"
.LC7:
	.ascii "\12after sorting\12\0"
	.text
	.globl	main
	.def	main;	.scl	2;	.type	32;	.endef
	.seh_proc	main
main:
.LFB46:
	.loc 2 30 1
	pushq	%rbp
	.seh_pushreg	%rbp
.LCFI15:
	subq	$848, %rsp
	.seh_stackalloc	848
.LCFI16:
	leaq	128(%rsp), %rbp
	.seh_setframe	%rbp, 128
.LCFI17:
	.seh_endprologue
	movl	%ecx, 736(%rbp)
	movq	%rdx, 744(%rbp)
	.loc 2 30 1
	call	__main
	.loc 2 32 17
	movl	$0, 716(%rbp)
	.loc 2 33 15
	leaq	.LC2(%rip), %rax
	movq	%rax, %rdx
	leaq	.LC3(%rip), %rax
	movq	%rax, %rcx
	call	fopen
	movq	%rax, 704(%rbp)
	.loc 2 34 5
	jmp	.L15
.L16:
	.loc 2 36 15
	leaq	-96(%rbp), %rax
	movl	716(%rbp), %edx
	movslq	%edx, %rdx
	salq	$2, %rdx
	addq	%rax, %rdx
	movq	704(%rbp), %rax
	movq	%rdx, %r8
	leaq	.LC4(%rip), %rdx
	movq	%rax, %rcx
	call	_Z6fscanfP6_iobufPKcz
	.loc 2 37 10
	addl	$1, 716(%rbp)
.L15:
	.loc 2 34 17
	movq	704(%rbp), %rax
	movq	%rax, %rcx
	call	feof
	.loc 2 34 12
	testl	%eax, %eax
	sete	%al
	testb	%al, %al
	jne	.L16
	.loc 2 39 11
	leaq	.LC5(%rip), %rax
	movq	%rax, %rcx
	call	_Z6printfPKcz
.LBB2:
	.loc 2 40 14
	movl	$0, 712(%rbp)
	.loc 2 40 5
	jmp	.L17
.L18:
	.loc 2 42 15
	movl	712(%rbp), %eax
	cltq
	movl	-96(%rbp,%rax,4), %eax
	movl	%eax, %edx
	leaq	.LC6(%rip), %rax
	movq	%rax, %rcx
	call	_Z6printfPKcz
	.loc 2 40 5
	addl	$1, 712(%rbp)
.L17:
	.loc 2 40 23 discriminator 1
	movl	712(%rbp), %eax
	cmpl	716(%rbp), %eax
	jl	.L18
.LBE2:
	.loc 2 44 9
	movl	716(%rbp), %edx
	leaq	-96(%rbp), %rax
	movq	%rax, %rcx
	call	_Z4sortPii
	.loc 2 45 11
	leaq	.LC7(%rip), %rax
	movq	%rax, %rcx
	call	_Z6printfPKcz
	.loc 2 46 12
	movl	716(%rbp), %edx
	leaq	-96(%rbp), %rax
	movq	%rax, %rcx
	call	_Z7print_aPii
	.loc 2 47 11
	movq	704(%rbp), %rax
	movq	%rax, %rcx
	call	fclose
	.loc 2 48 12
	movl	$0, %eax
	.loc 2 49 1
	addq	$848, %rsp
	popq	%rbp
.LCFI18:
	ret
.LFE46:
	.seh_endproc
	.section	.debug_frame,"dr"
.Lframe0:
	.long	.LECIE0-.LSCIE0
.LSCIE0:
	.long	0xffffffff
	.byte	0x3
	.ascii "\0"
	.uleb128 0x1
	.sleb128 -8
	.uleb128 0x10
	.byte	0xc
	.uleb128 0x7
	.uleb128 0x8
	.byte	0x90
	.uleb128 0x1
	.align 8
.LECIE0:
.LSFDE0:
	.long	.LEFDE0-.LASFDE0
.LASFDE0:
	.secrel32	.Lframe0
	.quad	.LFB3
	.quad	.LFE3-.LFB3
	.byte	0x4
	.long	.LCFI0-.LFB3
	.byte	0xe
	.uleb128 0x10
	.byte	0x86
	.uleb128 0x2
	.byte	0x4
	.long	.LCFI1-.LCFI0
	.byte	0xd
	.uleb128 0x6
	.byte	0x4
	.long	.LCFI2-.LCFI1
	.byte	0xc6
	.byte	0xc
	.uleb128 0x7
	.uleb128 0x8
	.align 8
.LEFDE0:
.LSFDE2:
	.long	.LEFDE2-.LASFDE2
.LASFDE2:
	.secrel32	.Lframe0
	.quad	.LFB8
	.quad	.LFE8-.LFB8
	.byte	0x4
	.long	.LCFI3-.LFB8
	.byte	0xe
	.uleb128 0x10
	.byte	0x86
	.uleb128 0x2
	.byte	0x4
	.long	.LCFI4-.LCFI3
	.byte	0xe
	.uleb128 0x18
	.byte	0x83
	.uleb128 0x3
	.byte	0x4
	.long	.LCFI5-.LCFI4
	.byte	0xe
	.uleb128 0x50
	.byte	0x4
	.long	.LCFI6-.LCFI5
	.byte	0xc
	.uleb128 0x6
	.uleb128 0x20
	.byte	0x4
	.long	.LCFI7-.LCFI6
	.byte	0xc3
	.byte	0x4
	.long	.LCFI8-.LCFI7
	.byte	0xc6
	.byte	0x12
	.uleb128 0x7
	.sleb128 5
	.align 8
.LEFDE2:
.LSFDE4:
	.long	.LEFDE4-.LASFDE4
.LASFDE4:
	.secrel32	.Lframe0
	.quad	.LFB44
	.quad	.LFE44-.LFB44
	.byte	0x4
	.long	.LCFI9-.LFB44
	.byte	0xe
	.uleb128 0x10
	.byte	0x86
	.uleb128 0x2
	.byte	0x4
	.long	.LCFI10-.LCFI9
	.byte	0xd
	.uleb128 0x6
	.byte	0x4
	.long	.LCFI11-.LCFI10
	.byte	0xc6
	.byte	0xc
	.uleb128 0x7
	.uleb128 0x8
	.align 8
.LEFDE4:
.LSFDE6:
	.long	.LEFDE6-.LASFDE6
.LASFDE6:
	.secrel32	.Lframe0
	.quad	.LFB45
	.quad	.LFE45-.LFB45
	.byte	0x4
	.long	.LCFI12-.LFB45
	.byte	0xe
	.uleb128 0x10
	.byte	0x86
	.uleb128 0x2
	.byte	0x4
	.long	.LCFI13-.LCFI12
	.byte	0xd
	.uleb128 0x6
	.byte	0x4
	.long	.LCFI14-.LCFI13
	.byte	0xc6
	.byte	0xc
	.uleb128 0x7
	.uleb128 0x8
	.align 8
.LEFDE6:
.LSFDE8:
	.long	.LEFDE8-.LASFDE8
.LASFDE8:
	.secrel32	.Lframe0
	.quad	.LFB46
	.quad	.LFE46-.LFB46
	.byte	0x4
	.long	.LCFI15-.LFB46
	.byte	0xe
	.uleb128 0x10
	.byte	0x86
	.uleb128 0x2
	.byte	0x4
	.long	.LCFI16-.LCFI15
	.byte	0xe
	.uleb128 0x360
	.byte	0x4
	.long	.LCFI17-.LCFI16
	.byte	0xc
	.uleb128 0x6
	.uleb128 0x2e0
	.byte	0x4
	.long	.LCFI18-.LCFI17
	.byte	0xc6
	.byte	0x12
	.uleb128 0x7
	.sleb128 105
	.align 8
.LEFDE8:
	.text
.Letext0:
	.file 3 "D:/Env/msys64/mingw64/include/vadefs.h"